ARM GAS  C:\Users\shubhamt\AppData\Local\Temp\ccLvGWs4.s 			page 1


   1              		.syntax unified
   2              		.cpu cortex-m3
   3              		.fpu softvfp
   4              		.eabi_attribute 20, 1
   5              		.eabi_attribute 21, 1
   6              		.eabi_attribute 23, 3
   7              		.eabi_attribute 24, 1
   8              		.eabi_attribute 25, 1
   9              		.eabi_attribute 26, 1
  10              		.eabi_attribute 30, 6
  11              		.eabi_attribute 34, 1
  12              		.eabi_attribute 18, 4
  13              		.thumb
  14              		.file	"ADC_SAR_1_PM.c"
  15              		.text
  16              	.Ltext0:
  17              		.cfi_sections	.debug_frame
  18              		.bss
  19              		.align	2
  20              	ADC_SAR_1_backup:
  21 0000 00       		.space	1
  22 0001 000000   		.section	.text.ADC_SAR_1_SaveConfig,"ax",%progbits
  23              		.align	2
  24              		.global	ADC_SAR_1_SaveConfig
  25              		.thumb
  26              		.thumb_func
  27              		.type	ADC_SAR_1_SaveConfig, %function
  28              	ADC_SAR_1_SaveConfig:
  29              	.LFB0:
  30              		.file 1 ".\\Generated_Source\\PSoC5\\ADC_SAR_1_PM.c"
   1:.\Generated_Source\PSoC5/ADC_SAR_1_PM.c **** /*******************************************************************************
   2:.\Generated_Source\PSoC5/ADC_SAR_1_PM.c **** * File Name: ADC_SAR_1_PM.c
   3:.\Generated_Source\PSoC5/ADC_SAR_1_PM.c **** * Version 3.0
   4:.\Generated_Source\PSoC5/ADC_SAR_1_PM.c **** *
   5:.\Generated_Source\PSoC5/ADC_SAR_1_PM.c **** * Description:
   6:.\Generated_Source\PSoC5/ADC_SAR_1_PM.c **** *  This file provides Sleep/WakeUp APIs functionality.
   7:.\Generated_Source\PSoC5/ADC_SAR_1_PM.c **** *
   8:.\Generated_Source\PSoC5/ADC_SAR_1_PM.c **** * Note:
   9:.\Generated_Source\PSoC5/ADC_SAR_1_PM.c **** *
  10:.\Generated_Source\PSoC5/ADC_SAR_1_PM.c **** ********************************************************************************
  11:.\Generated_Source\PSoC5/ADC_SAR_1_PM.c **** * Copyright 2008-2015, Cypress Semiconductor Corporation.  All rights reserved.
  12:.\Generated_Source\PSoC5/ADC_SAR_1_PM.c **** * You may use this file only in accordance with the license, terms, conditions,
  13:.\Generated_Source\PSoC5/ADC_SAR_1_PM.c **** * disclaimers, and limitations in the end user license agreement accompanying
  14:.\Generated_Source\PSoC5/ADC_SAR_1_PM.c **** * the software package with which this file was provided.
  15:.\Generated_Source\PSoC5/ADC_SAR_1_PM.c **** *******************************************************************************/
  16:.\Generated_Source\PSoC5/ADC_SAR_1_PM.c **** 
  17:.\Generated_Source\PSoC5/ADC_SAR_1_PM.c **** #include "ADC_SAR_1.h"
  18:.\Generated_Source\PSoC5/ADC_SAR_1_PM.c **** 
  19:.\Generated_Source\PSoC5/ADC_SAR_1_PM.c **** 
  20:.\Generated_Source\PSoC5/ADC_SAR_1_PM.c **** /***************************************
  21:.\Generated_Source\PSoC5/ADC_SAR_1_PM.c **** * Local data allocation
  22:.\Generated_Source\PSoC5/ADC_SAR_1_PM.c **** ***************************************/
  23:.\Generated_Source\PSoC5/ADC_SAR_1_PM.c **** 
  24:.\Generated_Source\PSoC5/ADC_SAR_1_PM.c **** static ADC_SAR_1_BACKUP_STRUCT  ADC_SAR_1_backup =
  25:.\Generated_Source\PSoC5/ADC_SAR_1_PM.c **** {
  26:.\Generated_Source\PSoC5/ADC_SAR_1_PM.c ****     ADC_SAR_1_DISABLED
  27:.\Generated_Source\PSoC5/ADC_SAR_1_PM.c **** };
ARM GAS  C:\Users\shubhamt\AppData\Local\Temp\ccLvGWs4.s 			page 2


  28:.\Generated_Source\PSoC5/ADC_SAR_1_PM.c **** 
  29:.\Generated_Source\PSoC5/ADC_SAR_1_PM.c **** 
  30:.\Generated_Source\PSoC5/ADC_SAR_1_PM.c **** /*******************************************************************************
  31:.\Generated_Source\PSoC5/ADC_SAR_1_PM.c **** * Function Name: ADC_SAR_1_SaveConfig
  32:.\Generated_Source\PSoC5/ADC_SAR_1_PM.c **** ********************************************************************************
  33:.\Generated_Source\PSoC5/ADC_SAR_1_PM.c **** *
  34:.\Generated_Source\PSoC5/ADC_SAR_1_PM.c **** * Summary:
  35:.\Generated_Source\PSoC5/ADC_SAR_1_PM.c **** *  Saves the current user configuration.
  36:.\Generated_Source\PSoC5/ADC_SAR_1_PM.c **** *
  37:.\Generated_Source\PSoC5/ADC_SAR_1_PM.c **** * Parameters:
  38:.\Generated_Source\PSoC5/ADC_SAR_1_PM.c **** *  None.
  39:.\Generated_Source\PSoC5/ADC_SAR_1_PM.c **** *
  40:.\Generated_Source\PSoC5/ADC_SAR_1_PM.c **** * Return:
  41:.\Generated_Source\PSoC5/ADC_SAR_1_PM.c **** *  None.
  42:.\Generated_Source\PSoC5/ADC_SAR_1_PM.c **** *
  43:.\Generated_Source\PSoC5/ADC_SAR_1_PM.c **** *******************************************************************************/
  44:.\Generated_Source\PSoC5/ADC_SAR_1_PM.c **** void ADC_SAR_1_SaveConfig(void)
  45:.\Generated_Source\PSoC5/ADC_SAR_1_PM.c **** {
  31              		.loc 1 45 0
  32              		.cfi_startproc
  33              		@ args = 0, pretend = 0, frame = 0
  34              		@ frame_needed = 1, uses_anonymous_args = 0
  35              		@ link register save eliminated.
  36 0000 80B4     		push	{r7}
  37              		.cfi_def_cfa_offset 4
  38              		.cfi_offset 7, -4
  39 0002 00AF     		add	r7, sp, #0
  40              		.cfi_def_cfa_register 7
  46:.\Generated_Source\PSoC5/ADC_SAR_1_PM.c ****     /* All configuration registers are marked as [reset_all_retention] */
  47:.\Generated_Source\PSoC5/ADC_SAR_1_PM.c **** }
  41              		.loc 1 47 0
  42 0004 BD46     		mov	sp, r7
  43              		@ sp needed
  44 0006 5DF8047B 		ldr	r7, [sp], #4
  45 000a 7047     		bx	lr
  46              		.cfi_endproc
  47              	.LFE0:
  48              		.size	ADC_SAR_1_SaveConfig, .-ADC_SAR_1_SaveConfig
  49              		.section	.text.ADC_SAR_1_RestoreConfig,"ax",%progbits
  50              		.align	2
  51              		.global	ADC_SAR_1_RestoreConfig
  52              		.thumb
  53              		.thumb_func
  54              		.type	ADC_SAR_1_RestoreConfig, %function
  55              	ADC_SAR_1_RestoreConfig:
  56              	.LFB1:
  48:.\Generated_Source\PSoC5/ADC_SAR_1_PM.c **** 
  49:.\Generated_Source\PSoC5/ADC_SAR_1_PM.c **** 
  50:.\Generated_Source\PSoC5/ADC_SAR_1_PM.c **** /*******************************************************************************
  51:.\Generated_Source\PSoC5/ADC_SAR_1_PM.c **** * Function Name: ADC_SAR_1_RestoreConfig
  52:.\Generated_Source\PSoC5/ADC_SAR_1_PM.c **** ********************************************************************************
  53:.\Generated_Source\PSoC5/ADC_SAR_1_PM.c **** *
  54:.\Generated_Source\PSoC5/ADC_SAR_1_PM.c **** * Summary:
  55:.\Generated_Source\PSoC5/ADC_SAR_1_PM.c **** *  Restores the current user configuration.
  56:.\Generated_Source\PSoC5/ADC_SAR_1_PM.c **** *
  57:.\Generated_Source\PSoC5/ADC_SAR_1_PM.c **** * Parameters:
  58:.\Generated_Source\PSoC5/ADC_SAR_1_PM.c **** *  None.
ARM GAS  C:\Users\shubhamt\AppData\Local\Temp\ccLvGWs4.s 			page 3


  59:.\Generated_Source\PSoC5/ADC_SAR_1_PM.c **** *
  60:.\Generated_Source\PSoC5/ADC_SAR_1_PM.c **** * Return:
  61:.\Generated_Source\PSoC5/ADC_SAR_1_PM.c **** *  None.
  62:.\Generated_Source\PSoC5/ADC_SAR_1_PM.c **** *
  63:.\Generated_Source\PSoC5/ADC_SAR_1_PM.c **** *******************************************************************************/
  64:.\Generated_Source\PSoC5/ADC_SAR_1_PM.c **** void ADC_SAR_1_RestoreConfig(void)
  65:.\Generated_Source\PSoC5/ADC_SAR_1_PM.c **** {
  57              		.loc 1 65 0
  58              		.cfi_startproc
  59              		@ args = 0, pretend = 0, frame = 0
  60              		@ frame_needed = 1, uses_anonymous_args = 0
  61              		@ link register save eliminated.
  62 0000 80B4     		push	{r7}
  63              		.cfi_def_cfa_offset 4
  64              		.cfi_offset 7, -4
  65 0002 00AF     		add	r7, sp, #0
  66              		.cfi_def_cfa_register 7
  66:.\Generated_Source\PSoC5/ADC_SAR_1_PM.c ****     /* All congiguration registers are marked as [reset_all_retention] */
  67:.\Generated_Source\PSoC5/ADC_SAR_1_PM.c **** }
  67              		.loc 1 67 0
  68 0004 BD46     		mov	sp, r7
  69              		@ sp needed
  70 0006 5DF8047B 		ldr	r7, [sp], #4
  71 000a 7047     		bx	lr
  72              		.cfi_endproc
  73              	.LFE1:
  74              		.size	ADC_SAR_1_RestoreConfig, .-ADC_SAR_1_RestoreConfig
  75              		.section	.text.ADC_SAR_1_Sleep,"ax",%progbits
  76              		.align	2
  77              		.global	ADC_SAR_1_Sleep
  78              		.thumb
  79              		.thumb_func
  80              		.type	ADC_SAR_1_Sleep, %function
  81              	ADC_SAR_1_Sleep:
  82              	.LFB2:
  68:.\Generated_Source\PSoC5/ADC_SAR_1_PM.c **** 
  69:.\Generated_Source\PSoC5/ADC_SAR_1_PM.c **** 
  70:.\Generated_Source\PSoC5/ADC_SAR_1_PM.c **** /*******************************************************************************
  71:.\Generated_Source\PSoC5/ADC_SAR_1_PM.c **** * Function Name: ADC_SAR_1_Sleep
  72:.\Generated_Source\PSoC5/ADC_SAR_1_PM.c **** ********************************************************************************
  73:.\Generated_Source\PSoC5/ADC_SAR_1_PM.c **** *
  74:.\Generated_Source\PSoC5/ADC_SAR_1_PM.c **** * Summary:
  75:.\Generated_Source\PSoC5/ADC_SAR_1_PM.c **** *  This is the preferred routine to prepare the component for sleep.
  76:.\Generated_Source\PSoC5/ADC_SAR_1_PM.c **** *  The ADC_SAR_1_Sleep() routine saves the current component state,
  77:.\Generated_Source\PSoC5/ADC_SAR_1_PM.c **** *  then it calls the ADC_Stop() function.
  78:.\Generated_Source\PSoC5/ADC_SAR_1_PM.c **** *
  79:.\Generated_Source\PSoC5/ADC_SAR_1_PM.c **** * Parameters:
  80:.\Generated_Source\PSoC5/ADC_SAR_1_PM.c **** *  None.
  81:.\Generated_Source\PSoC5/ADC_SAR_1_PM.c **** *
  82:.\Generated_Source\PSoC5/ADC_SAR_1_PM.c **** * Return:
  83:.\Generated_Source\PSoC5/ADC_SAR_1_PM.c **** *  None.
  84:.\Generated_Source\PSoC5/ADC_SAR_1_PM.c **** *
  85:.\Generated_Source\PSoC5/ADC_SAR_1_PM.c **** * Global Variables:
  86:.\Generated_Source\PSoC5/ADC_SAR_1_PM.c **** *  ADC_SAR_1_backup - The structure field 'enableState' is modified
  87:.\Generated_Source\PSoC5/ADC_SAR_1_PM.c **** *  depending on the enable state of the block before entering to sleep mode.
  88:.\Generated_Source\PSoC5/ADC_SAR_1_PM.c **** *
  89:.\Generated_Source\PSoC5/ADC_SAR_1_PM.c **** *******************************************************************************/
ARM GAS  C:\Users\shubhamt\AppData\Local\Temp\ccLvGWs4.s 			page 4


  90:.\Generated_Source\PSoC5/ADC_SAR_1_PM.c **** void ADC_SAR_1_Sleep(void)
  91:.\Generated_Source\PSoC5/ADC_SAR_1_PM.c **** {
  83              		.loc 1 91 0
  84              		.cfi_startproc
  85              		@ args = 0, pretend = 0, frame = 0
  86              		@ frame_needed = 1, uses_anonymous_args = 0
  87 0000 80B5     		push	{r7, lr}
  88              		.cfi_def_cfa_offset 8
  89              		.cfi_offset 7, -8
  90              		.cfi_offset 14, -4
  91 0002 00AF     		add	r7, sp, #0
  92              		.cfi_def_cfa_register 7
  92:.\Generated_Source\PSoC5/ADC_SAR_1_PM.c ****     if((ADC_SAR_1_PWRMGR_SAR_REG  & ADC_SAR_1_ACT_PWR_SAR_EN) != 0u)
  93              		.loc 1 92 0
  94 0004 0D4B     		ldr	r3, .L8
  95 0006 1B78     		ldrb	r3, [r3]
  96 0008 DBB2     		uxtb	r3, r3
  97 000a 03F00203 		and	r3, r3, #2
  98 000e 002B     		cmp	r3, #0
  99 0010 10D0     		beq	.L4
  93:.\Generated_Source\PSoC5/ADC_SAR_1_PM.c ****     {
  94:.\Generated_Source\PSoC5/ADC_SAR_1_PM.c ****         if((ADC_SAR_1_SAR_CSR0_REG & ADC_SAR_1_SAR_SOF_START_CONV) != 0u)
 100              		.loc 1 94 0
 101 0012 0B4B     		ldr	r3, .L8+4
 102 0014 1B78     		ldrb	r3, [r3]
 103 0016 DBB2     		uxtb	r3, r3
 104 0018 03F00103 		and	r3, r3, #1
 105 001c 002B     		cmp	r3, #0
 106 001e 03D0     		beq	.L5
  95:.\Generated_Source\PSoC5/ADC_SAR_1_PM.c ****         {
  96:.\Generated_Source\PSoC5/ADC_SAR_1_PM.c ****             ADC_SAR_1_backup.enableState = ADC_SAR_1_ENABLED | ADC_SAR_1_STARTED;
 107              		.loc 1 96 0
 108 0020 084B     		ldr	r3, .L8+8
 109 0022 0322     		movs	r2, #3
 110 0024 1A70     		strb	r2, [r3]
 111 0026 02E0     		b	.L6
 112              	.L5:
  97:.\Generated_Source\PSoC5/ADC_SAR_1_PM.c ****         }
  98:.\Generated_Source\PSoC5/ADC_SAR_1_PM.c ****         else
  99:.\Generated_Source\PSoC5/ADC_SAR_1_PM.c ****         {
 100:.\Generated_Source\PSoC5/ADC_SAR_1_PM.c ****             ADC_SAR_1_backup.enableState = ADC_SAR_1_ENABLED;
 113              		.loc 1 100 0
 114 0028 064B     		ldr	r3, .L8+8
 115 002a 0122     		movs	r2, #1
 116 002c 1A70     		strb	r2, [r3]
 117              	.L6:
 101:.\Generated_Source\PSoC5/ADC_SAR_1_PM.c ****         }
 102:.\Generated_Source\PSoC5/ADC_SAR_1_PM.c ****         ADC_SAR_1_Stop();
 118              		.loc 1 102 0 discriminator 1
 119 002e FFF7FEFF 		bl	ADC_SAR_1_Stop
 120 0032 02E0     		b	.L3
 121              	.L4:
 103:.\Generated_Source\PSoC5/ADC_SAR_1_PM.c ****     }
 104:.\Generated_Source\PSoC5/ADC_SAR_1_PM.c ****     else
 105:.\Generated_Source\PSoC5/ADC_SAR_1_PM.c ****     {
 106:.\Generated_Source\PSoC5/ADC_SAR_1_PM.c ****         ADC_SAR_1_backup.enableState = ADC_SAR_1_DISABLED;
 122              		.loc 1 106 0
ARM GAS  C:\Users\shubhamt\AppData\Local\Temp\ccLvGWs4.s 			page 5


 123 0034 034B     		ldr	r3, .L8+8
 124 0036 0022     		movs	r2, #0
 125 0038 1A70     		strb	r2, [r3]
 126              	.L3:
 107:.\Generated_Source\PSoC5/ADC_SAR_1_PM.c ****     }
 108:.\Generated_Source\PSoC5/ADC_SAR_1_PM.c **** }
 127              		.loc 1 108 0
 128 003a 80BD     		pop	{r7, pc}
 129              	.L9:
 130              		.align	2
 131              	.L8:
 132 003c AB430040 		.word	1073759147
 133 0040 08590040 		.word	1073764616
 134 0044 00000000 		.word	ADC_SAR_1_backup
 135              		.cfi_endproc
 136              	.LFE2:
 137              		.size	ADC_SAR_1_Sleep, .-ADC_SAR_1_Sleep
 138              		.section	.text.ADC_SAR_1_Wakeup,"ax",%progbits
 139              		.align	2
 140              		.global	ADC_SAR_1_Wakeup
 141              		.thumb
 142              		.thumb_func
 143              		.type	ADC_SAR_1_Wakeup, %function
 144              	ADC_SAR_1_Wakeup:
 145              	.LFB3:
 109:.\Generated_Source\PSoC5/ADC_SAR_1_PM.c **** 
 110:.\Generated_Source\PSoC5/ADC_SAR_1_PM.c **** 
 111:.\Generated_Source\PSoC5/ADC_SAR_1_PM.c **** /*******************************************************************************
 112:.\Generated_Source\PSoC5/ADC_SAR_1_PM.c **** * Function Name: ADC_SAR_1_Wakeup
 113:.\Generated_Source\PSoC5/ADC_SAR_1_PM.c **** ********************************************************************************
 114:.\Generated_Source\PSoC5/ADC_SAR_1_PM.c **** *
 115:.\Generated_Source\PSoC5/ADC_SAR_1_PM.c **** * Summary:
 116:.\Generated_Source\PSoC5/ADC_SAR_1_PM.c **** *  This is the preferred routine to restore the component to the state when
 117:.\Generated_Source\PSoC5/ADC_SAR_1_PM.c **** *  ADC_SAR_1_Sleep() was called. If the component was enabled before the
 118:.\Generated_Source\PSoC5/ADC_SAR_1_PM.c **** *  ADC_SAR_1_Sleep() function was called, the
 119:.\Generated_Source\PSoC5/ADC_SAR_1_PM.c **** *  ADC_SAR_1_Wakeup() function also re-enables the component.
 120:.\Generated_Source\PSoC5/ADC_SAR_1_PM.c **** *
 121:.\Generated_Source\PSoC5/ADC_SAR_1_PM.c **** * Parameters:
 122:.\Generated_Source\PSoC5/ADC_SAR_1_PM.c **** *  None.
 123:.\Generated_Source\PSoC5/ADC_SAR_1_PM.c **** *
 124:.\Generated_Source\PSoC5/ADC_SAR_1_PM.c **** * Return:
 125:.\Generated_Source\PSoC5/ADC_SAR_1_PM.c **** *  None.
 126:.\Generated_Source\PSoC5/ADC_SAR_1_PM.c **** *
 127:.\Generated_Source\PSoC5/ADC_SAR_1_PM.c **** * Global Variables:
 128:.\Generated_Source\PSoC5/ADC_SAR_1_PM.c **** *  ADC_SAR_1_backup - The structure field 'enableState' is used to
 129:.\Generated_Source\PSoC5/ADC_SAR_1_PM.c **** *  restore the enable state of block after wakeup from sleep mode.
 130:.\Generated_Source\PSoC5/ADC_SAR_1_PM.c **** *
 131:.\Generated_Source\PSoC5/ADC_SAR_1_PM.c **** *******************************************************************************/
 132:.\Generated_Source\PSoC5/ADC_SAR_1_PM.c **** void ADC_SAR_1_Wakeup(void)
 133:.\Generated_Source\PSoC5/ADC_SAR_1_PM.c **** {
 146              		.loc 1 133 0
 147              		.cfi_startproc
 148              		@ args = 0, pretend = 0, frame = 0
 149              		@ frame_needed = 1, uses_anonymous_args = 0
 150 0000 80B5     		push	{r7, lr}
 151              		.cfi_def_cfa_offset 8
 152              		.cfi_offset 7, -8
ARM GAS  C:\Users\shubhamt\AppData\Local\Temp\ccLvGWs4.s 			page 6


 153              		.cfi_offset 14, -4
 154 0002 00AF     		add	r7, sp, #0
 155              		.cfi_def_cfa_register 7
 134:.\Generated_Source\PSoC5/ADC_SAR_1_PM.c ****     if(ADC_SAR_1_backup.enableState != ADC_SAR_1_DISABLED)
 156              		.loc 1 134 0
 157 0004 034B     		ldr	r3, .L12
 158 0006 1B78     		ldrb	r3, [r3]	@ zero_extendqisi2
 159 0008 002B     		cmp	r3, #0
 160 000a 01D0     		beq	.L10
 135:.\Generated_Source\PSoC5/ADC_SAR_1_PM.c ****     {
 136:.\Generated_Source\PSoC5/ADC_SAR_1_PM.c ****         ADC_SAR_1_Enable();
 161              		.loc 1 136 0
 162 000c FFF7FEFF 		bl	ADC_SAR_1_Enable
 163              	.L10:
 137:.\Generated_Source\PSoC5/ADC_SAR_1_PM.c ****         #if(ADC_SAR_1_DEFAULT_CONV_MODE != ADC_SAR_1__HARDWARE_TRIGGER)
 138:.\Generated_Source\PSoC5/ADC_SAR_1_PM.c ****             if((ADC_SAR_1_backup.enableState & ADC_SAR_1_STARTED) != 0u)
 139:.\Generated_Source\PSoC5/ADC_SAR_1_PM.c ****             {
 140:.\Generated_Source\PSoC5/ADC_SAR_1_PM.c ****                 ADC_SAR_1_StartConvert();
 141:.\Generated_Source\PSoC5/ADC_SAR_1_PM.c ****             }
 142:.\Generated_Source\PSoC5/ADC_SAR_1_PM.c ****         #endif /* End ADC_SAR_1_DEFAULT_CONV_MODE != ADC_SAR_1__HARDWARE_TRIGGER */
 143:.\Generated_Source\PSoC5/ADC_SAR_1_PM.c ****     }
 144:.\Generated_Source\PSoC5/ADC_SAR_1_PM.c **** }
 164              		.loc 1 144 0
 165 0010 80BD     		pop	{r7, pc}
 166              	.L13:
 167 0012 00BF     		.align	2
 168              	.L12:
 169 0014 00000000 		.word	ADC_SAR_1_backup
 170              		.cfi_endproc
 171              	.LFE3:
 172              		.size	ADC_SAR_1_Wakeup, .-ADC_SAR_1_Wakeup
 173              		.text
 174              	.Letext0:
 175              		.file 2 ".\\Generated_Source\\PSoC5\\cytypes.h"
 176              		.file 3 ".\\Generated_Source\\PSoC5\\ADC_SAR_1.h"