ARM GAS  C:\Users\pearlstl\AppData\Local\Temp\ccsmdRMY.s 			page 1


   1              		.syntax unified
   2              		.cpu cortex-m3
   3              		.fpu softvfp
   4              		.eabi_attribute 20, 1
   5              		.eabi_attribute 21, 1
   6              		.eabi_attribute 23, 3
   7              		.eabi_attribute 24, 1
   8              		.eabi_attribute 25, 1
   9              		.eabi_attribute 26, 1
  10              		.eabi_attribute 30, 6
  11              		.eabi_attribute 34, 1
  12              		.eabi_attribute 18, 4
  13              		.thumb
  14              		.file	"canceller.c"
  15              		.text
  16              	.Ltext0:
  17              		.cfi_sections	.debug_frame
  18              		.bss
  19              		.align	2
  20              	recent_samps_in:
  21 0000 00000000 		.space	64
  21      00000000 
  21      00000000 
  21      00000000 
  21      00000000 
  22              		.align	2
  23              	model_coeffs:
  24 0040 00000000 		.space	64
  24      00000000 
  24      00000000 
  24      00000000 
  24      00000000 
  25              		.align	2
  26              	recent_samps_v:
  27 0080 00000000 		.space	64
  27      00000000 
  27      00000000 
  27      00000000 
  27      00000000 
  28              		.section	.text.canceller_new,"ax",%progbits
  29              		.align	2
  30              		.global	canceller_new
  31              		.thumb
  32              		.thumb_func
  33              		.type	canceller_new, %function
  34              	canceller_new:
  35              	.LFB0:
  36              		.file 1 ".\\canceller.c"
   1:.\canceller.c **** /* ========================================
   2:.\canceller.c ****  *
   3:.\canceller.c ****  * Copyright YOUR COMPANY, THE YEAR
   4:.\canceller.c ****  * All Rights Reserved
   5:.\canceller.c ****  * UNPUBLISHED, LICENSED SOFTWARE.
   6:.\canceller.c ****  *
   7:.\canceller.c ****  * CONFIDENTIAL AND PROPRIETARY INFORMATION
   8:.\canceller.c ****  * WHICH IS THE PROPERTY OF your company.
   9:.\canceller.c ****  *
ARM GAS  C:\Users\pearlstl\AppData\Local\Temp\ccsmdRMY.s 			page 2


  10:.\canceller.c ****  * ========================================
  11:.\canceller.c **** */
  12:.\canceller.c **** #include "hs_model.h"                       
  13:.\canceller.c **** #include "mic_model.h"
  14:.\canceller.c **** #include "ANC.h"  
  15:.\canceller.c **** #include "canceller.h"
  16:.\canceller.c **** #define FILTER_ORDER (16)
  17:.\canceller.c **** #define FO1 (FILTER_ORDER-1) 
  18:.\canceller.c **** #define MU (0.001)
  19:.\canceller.c **** static int recent_samps_in [FILTER_ORDER];
  20:.\canceller.c **** static int model_coeffs [FILTER_ORDER];
  21:.\canceller.c **** static int recent_samps_v [FILTER_ORDER];
  22:.\canceller.c **** 
  23:.\canceller.c **** void 
  24:.\canceller.c **** canceller_new(void)
  25:.\canceller.c **** {
  37              		.loc 1 25 0
  38              		.cfi_startproc
  39              		@ args = 0, pretend = 0, frame = 8
  40              		@ frame_needed = 1, uses_anonymous_args = 0
  41              		@ link register save eliminated.
  42 0000 80B4     		push	{r7}
  43              		.cfi_def_cfa_offset 4
  44              		.cfi_offset 7, -4
  45 0002 83B0     		sub	sp, sp, #12
  46              		.cfi_def_cfa_offset 16
  47 0004 00AF     		add	r7, sp, #0
  48              		.cfi_def_cfa_register 7
  26:.\canceller.c ****     int i;
  27:.\canceller.c ****     for (i=0; i<FILTER_ORDER; ++i)
  49              		.loc 1 27 0
  50 0006 0023     		movs	r3, #0
  51 0008 7B60     		str	r3, [r7, #4]
  52 000a 11E0     		b	.L2
  53              	.L3:
  28:.\canceller.c ****     {
  29:.\canceller.c ****         recent_samps_v [i]=0;
  54              		.loc 1 29 0 discriminator 2
  55 000c 0E4B     		ldr	r3, .L4
  56 000e 7A68     		ldr	r2, [r7, #4]
  57 0010 0021     		movs	r1, #0
  58 0012 43F82210 		str	r1, [r3, r2, lsl #2]
  30:.\canceller.c ****         recent_samps_in [i]=0;
  59              		.loc 1 30 0 discriminator 2
  60 0016 0D4B     		ldr	r3, .L4+4
  61 0018 7A68     		ldr	r2, [r7, #4]
  62 001a 0021     		movs	r1, #0
  63 001c 43F82210 		str	r1, [r3, r2, lsl #2]
  31:.\canceller.c ****         model_coeffs[i]=0;    
  64              		.loc 1 31 0 discriminator 2
  65 0020 0B4B     		ldr	r3, .L4+8
  66 0022 7A68     		ldr	r2, [r7, #4]
  67 0024 0021     		movs	r1, #0
  68 0026 43F82210 		str	r1, [r3, r2, lsl #2]
  27:.\canceller.c ****     for (i=0; i<FILTER_ORDER; ++i)
  69              		.loc 1 27 0 discriminator 2
  70 002a 7B68     		ldr	r3, [r7, #4]
ARM GAS  C:\Users\pearlstl\AppData\Local\Temp\ccsmdRMY.s 			page 3


  71 002c 0133     		adds	r3, r3, #1
  72 002e 7B60     		str	r3, [r7, #4]
  73              	.L2:
  27:.\canceller.c ****     for (i=0; i<FILTER_ORDER; ++i)
  74              		.loc 1 27 0 is_stmt 0 discriminator 1
  75 0030 7B68     		ldr	r3, [r7, #4]
  76 0032 0F2B     		cmp	r3, #15
  77 0034 EADD     		ble	.L3
  32:.\canceller.c ****     }
  33:.\canceller.c ****     model_coeffs[0]=1;
  78              		.loc 1 33 0 is_stmt 1
  79 0036 064B     		ldr	r3, .L4+8
  80 0038 0122     		movs	r2, #1
  81 003a 1A60     		str	r2, [r3]
  34:.\canceller.c **** }
  82              		.loc 1 34 0
  83 003c 0C37     		adds	r7, r7, #12
  84 003e BD46     		mov	sp, r7
  85              		@ sp needed
  86 0040 5DF8047B 		ldr	r7, [sp], #4
  87 0044 7047     		bx	lr
  88              	.L5:
  89 0046 00BF     		.align	2
  90              	.L4:
  91 0048 80000000 		.word	recent_samps_v
  92 004c 00000000 		.word	recent_samps_in
  93 0050 40000000 		.word	model_coeffs
  94              		.cfi_endproc
  95              	.LFE0:
  96              		.size	canceller_new, .-canceller_new
  97              		.section	.text.canceller_new_sample,"ax",%progbits
  98              		.align	2
  99              		.global	canceller_new_sample
 100              		.thumb
 101              		.thumb_func
 102              		.type	canceller_new_sample, %function
 103              	canceller_new_sample:
 104              	.LFB1:
  35:.\canceller.c **** int 
  36:.\canceller.c **** canceller_new_sample(int input_samp)
  37:.\canceller.c **** {
 105              		.loc 1 37 0
 106              		.cfi_startproc
 107              		@ args = 0, pretend = 0, frame = 24
 108              		@ frame_needed = 1, uses_anonymous_args = 0
 109 0000 80B5     		push	{r7, lr}
 110              		.cfi_def_cfa_offset 8
 111              		.cfi_offset 7, -8
 112              		.cfi_offset 14, -4
 113 0002 86B0     		sub	sp, sp, #24
 114              		.cfi_def_cfa_offset 32
 115 0004 00AF     		add	r7, sp, #0
 116              		.cfi_def_cfa_register 7
 117 0006 7860     		str	r0, [r7, #4]
  38:.\canceller.c ****     //recent_samps_in[FILTER_ORDER - 1];
  39:.\canceller.c ****     int i;
  40:.\canceller.c ****     int sum=0;
ARM GAS  C:\Users\pearlstl\AppData\Local\Temp\ccsmdRMY.s 			page 4


 118              		.loc 1 40 0
 119 0008 0023     		movs	r3, #0
 120 000a 3B61     		str	r3, [r7, #16]
  41:.\canceller.c ****     int tmp;
  42:.\canceller.c ****     int v;
  43:.\canceller.c ****     static int wptr=0;    //circular buffer write pointer, for recent_samps_in
  44:.\canceller.c ****     recent_samps_in[wptr]= input_samp;
 121              		.loc 1 44 0
 122 000c 204B     		ldr	r3, .L10
 123 000e 1A68     		ldr	r2, [r3]
 124 0010 204B     		ldr	r3, .L10+4
 125 0012 7968     		ldr	r1, [r7, #4]
 126 0014 43F82210 		str	r1, [r3, r2, lsl #2]
  45:.\canceller.c ****     tmp=hs_model_new_sample(input_samp);
 127              		.loc 1 45 0
 128 0018 7868     		ldr	r0, [r7, #4]
 129 001a FFF7FEFF 		bl	hs_model_new_sample
 130 001e F860     		str	r0, [r7, #12]
  46:.\canceller.c ****     v=mic_model_new_sample(tmp);
 131              		.loc 1 46 0
 132 0020 F868     		ldr	r0, [r7, #12]
 133 0022 FFF7FEFF 		bl	mic_model_new_sample
 134 0026 B860     		str	r0, [r7, #8]
  47:.\canceller.c ****     recent_samps_v[wptr]=v;
 135              		.loc 1 47 0
 136 0028 194B     		ldr	r3, .L10
 137 002a 1A68     		ldr	r2, [r3]
 138 002c 1A4B     		ldr	r3, .L10+8
 139 002e B968     		ldr	r1, [r7, #8]
 140 0030 43F82210 		str	r1, [r3, r2, lsl #2]
  48:.\canceller.c ****     // into mic_model filter
  49:.\canceller.c ****               
  50:.\canceller.c ****     sum=0;
 141              		.loc 1 50 0
 142 0034 0023     		movs	r3, #0
 143 0036 3B61     		str	r3, [r7, #16]
  51:.\canceller.c **** 
  52:.\canceller.c ****     for (i=0 ; i<FILTER_ORDER ; ++i)
 144              		.loc 1 52 0
 145 0038 0023     		movs	r3, #0
 146 003a 7B61     		str	r3, [r7, #20]
 147 003c 14E0     		b	.L7
 148              	.L8:
  53:.\canceller.c ****         {
  54:.\canceller.c ****             sum+=recent_samps_in[(wptr-i+FILTER_ORDER)&FO1]*model_coeffs[i];
 149              		.loc 1 54 0 discriminator 2
 150 003e 144B     		ldr	r3, .L10
 151 0040 1A68     		ldr	r2, [r3]
 152 0042 7B69     		ldr	r3, [r7, #20]
 153 0044 D31A     		subs	r3, r2, r3
 154 0046 03F00F02 		and	r2, r3, #15
 155 004a 124B     		ldr	r3, .L10+4
 156 004c 53F82230 		ldr	r3, [r3, r2, lsl #2]
 157 0050 124A     		ldr	r2, .L10+12
 158 0052 7969     		ldr	r1, [r7, #20]
 159 0054 52F82120 		ldr	r2, [r2, r1, lsl #2]
 160 0058 02FB03F3 		mul	r3, r2, r3
ARM GAS  C:\Users\pearlstl\AppData\Local\Temp\ccsmdRMY.s 			page 5


 161 005c 3A69     		ldr	r2, [r7, #16]
 162 005e 1344     		add	r3, r3, r2
 163 0060 3B61     		str	r3, [r7, #16]
  52:.\canceller.c ****     for (i=0 ; i<FILTER_ORDER ; ++i)
 164              		.loc 1 52 0 discriminator 2
 165 0062 7B69     		ldr	r3, [r7, #20]
 166 0064 0133     		adds	r3, r3, #1
 167 0066 7B61     		str	r3, [r7, #20]
 168              	.L7:
  52:.\canceller.c ****     for (i=0 ; i<FILTER_ORDER ; ++i)
 169              		.loc 1 52 0 is_stmt 0 discriminator 1
 170 0068 7B69     		ldr	r3, [r7, #20]
 171 006a 0F2B     		cmp	r3, #15
 172 006c E7DD     		ble	.L8
  55:.\canceller.c ****         }
  56:.\canceller.c ****     sum=(sum+FP_ROUND)>>FP_SHIFT;
 173              		.loc 1 56 0 is_stmt 1
 174 006e 3B69     		ldr	r3, [r7, #16]
 175 0070 03F50063 		add	r3, r3, #2048
 176 0074 1B13     		asrs	r3, r3, #12
 177 0076 3B61     		str	r3, [r7, #16]
  57:.\canceller.c ****     wptr=(wptr+1)&FO1;
 178              		.loc 1 57 0
 179 0078 054B     		ldr	r3, .L10
 180 007a 1B68     		ldr	r3, [r3]
 181 007c 0133     		adds	r3, r3, #1
 182 007e 03F00F02 		and	r2, r3, #15
 183 0082 034B     		ldr	r3, .L10
 184 0084 1A60     		str	r2, [r3]
  58:.\canceller.c ****     return sum;
 185              		.loc 1 58 0
 186 0086 3B69     		ldr	r3, [r7, #16]
  59:.\canceller.c **** }
 187              		.loc 1 59 0
 188 0088 1846     		mov	r0, r3
 189 008a 1837     		adds	r7, r7, #24
 190 008c BD46     		mov	sp, r7
 191              		@ sp needed
 192 008e 80BD     		pop	{r7, pc}
 193              	.L11:
 194              		.align	2
 195              	.L10:
 196 0090 C0000000 		.word	wptr.4091
 197 0094 00000000 		.word	recent_samps_in
 198 0098 80000000 		.word	recent_samps_v
 199 009c 40000000 		.word	model_coeffs
 200              		.cfi_endproc
 201              	.LFE1:
 202              		.size	canceller_new_sample, .-canceller_new_sample
 203              		.section	.text.canceller_coeff_update,"ax",%progbits
 204              		.align	2
 205              		.global	canceller_coeff_update
 206              		.thumb
 207              		.thumb_func
 208              		.type	canceller_coeff_update, %function
 209              	canceller_coeff_update:
 210              	.LFB2:
ARM GAS  C:\Users\pearlstl\AppData\Local\Temp\ccsmdRMY.s 			page 6


  60:.\canceller.c **** void
  61:.\canceller.c **** canceller_coeff_update (int e_)
  62:.\canceller.c **** {
 211              		.loc 1 62 0
 212              		.cfi_startproc
 213              		@ args = 0, pretend = 0, frame = 24
 214              		@ frame_needed = 1, uses_anonymous_args = 0
 215              		@ link register save eliminated.
 216 0000 80B4     		push	{r7}
 217              		.cfi_def_cfa_offset 4
 218              		.cfi_offset 7, -4
 219 0002 87B0     		sub	sp, sp, #28
 220              		.cfi_def_cfa_offset 32
 221 0004 00AF     		add	r7, sp, #0
 222              		.cfi_def_cfa_register 7
 223 0006 7860     		str	r0, [r7, #4]
  63:.\canceller.c ****     int i;
  64:.\canceller.c ****     int mu_prime=(MU*(1<<FP_SHIFT)+0.5);     
 224              		.loc 1 64 0
 225 0008 0423     		movs	r3, #4
 226 000a 3B61     		str	r3, [r7, #16]
  65:.\canceller.c ****     for (i=0 ; i<FILTER_ORDER;++i)
 227              		.loc 1 65 0
 228 000c 0023     		movs	r3, #0
 229 000e 7B61     		str	r3, [r7, #20]
 230 0010 1FE0     		b	.L13
 231              	.L14:
 232              	.LBB2:
  66:.\canceller.c ****     {
  67:.\canceller.c ****         int temp;
  68:.\canceller.c ****         temp = (e_*recent_samps_v[i]+FP_ROUND)>>FP_SHIFT;
 233              		.loc 1 68 0 discriminator 2
 234 0012 144B     		ldr	r3, .L15
 235 0014 7A69     		ldr	r2, [r7, #20]
 236 0016 53F82230 		ldr	r3, [r3, r2, lsl #2]
 237 001a 7A68     		ldr	r2, [r7, #4]
 238 001c 02FB03F3 		mul	r3, r2, r3
 239 0020 03F50063 		add	r3, r3, #2048
 240 0024 1B13     		asrs	r3, r3, #12
 241 0026 FB60     		str	r3, [r7, #12]
  69:.\canceller.c ****         temp = (mu_prime*temp+FP_ROUND)>>FP_SHIFT;
 242              		.loc 1 69 0 discriminator 2
 243 0028 3B69     		ldr	r3, [r7, #16]
 244 002a FA68     		ldr	r2, [r7, #12]
 245 002c 02FB03F3 		mul	r3, r2, r3
 246 0030 03F50063 		add	r3, r3, #2048
 247 0034 1B13     		asrs	r3, r3, #12
 248 0036 FB60     		str	r3, [r7, #12]
  70:.\canceller.c ****         model_coeffs[i]=model_coeffs[i]-temp;
 249              		.loc 1 70 0 discriminator 2
 250 0038 0B4B     		ldr	r3, .L15+4
 251 003a 7A69     		ldr	r2, [r7, #20]
 252 003c 53F82220 		ldr	r2, [r3, r2, lsl #2]
 253 0040 FB68     		ldr	r3, [r7, #12]
 254 0042 D11A     		subs	r1, r2, r3
 255 0044 084B     		ldr	r3, .L15+4
 256 0046 7A69     		ldr	r2, [r7, #20]
ARM GAS  C:\Users\pearlstl\AppData\Local\Temp\ccsmdRMY.s 			page 7


 257 0048 43F82210 		str	r1, [r3, r2, lsl #2]
 258              	.LBE2:
  65:.\canceller.c ****     for (i=0 ; i<FILTER_ORDER;++i)
 259              		.loc 1 65 0 discriminator 2
 260 004c 7B69     		ldr	r3, [r7, #20]
 261 004e 0133     		adds	r3, r3, #1
 262 0050 7B61     		str	r3, [r7, #20]
 263              	.L13:
  65:.\canceller.c ****     for (i=0 ; i<FILTER_ORDER;++i)
 264              		.loc 1 65 0 is_stmt 0 discriminator 1
 265 0052 7B69     		ldr	r3, [r7, #20]
 266 0054 0F2B     		cmp	r3, #15
 267 0056 DCDD     		ble	.L14
  71:.\canceller.c ****     }
  72:.\canceller.c **** }
 268              		.loc 1 72 0 is_stmt 1
 269 0058 1C37     		adds	r7, r7, #28
 270 005a BD46     		mov	sp, r7
 271              		@ sp needed
 272 005c 5DF8047B 		ldr	r7, [sp], #4
 273 0060 7047     		bx	lr
 274              	.L16:
 275 0062 00BF     		.align	2
 276              	.L15:
 277 0064 80000000 		.word	recent_samps_v
 278 0068 40000000 		.word	model_coeffs
 279              		.cfi_endproc
 280              	.LFE2:
 281              		.size	canceller_coeff_update, .-canceller_coeff_update
 282              		.bss
 283              		.align	2
 284              	wptr.4091:
 285 00c0 00000000 		.space	4
 286              		.text
 287              	.Letext0: