ARM GAS  C:\Users\pearlstl\AppData\Local\Temp\ccUrdpib.s 			page 1


   1              		.syntax unified
   2              		.cpu cortex-m3
   3              		.fpu softvfp
   4              		.eabi_attribute 20, 1
   5              		.eabi_attribute 21, 1
   6              		.eabi_attribute 23, 3
   7              		.eabi_attribute 24, 1
   8              		.eabi_attribute 25, 1
   9              		.eabi_attribute 26, 1
  10              		.eabi_attribute 30, 6
  11              		.eabi_attribute 34, 1
  12              		.eabi_attribute 18, 4
  13              		.thumb
  14              		.file	"canceller.c"
  15              		.text
  16              	.Ltext0:
  17              		.cfi_sections	.debug_frame
  18              		.bss
  19              		.align	2
  20              	recent_samps_in:
  21 0000 00000000 		.space	64
  21      00000000 
  21      00000000 
  21      00000000 
  21      00000000 
  22              		.align	2
  23              	recent_samps_v:
  24 0040 00000000 		.space	64
  24      00000000 
  24      00000000 
  24      00000000 
  24      00000000 
  25              		.align	2
  26              	recent_samps_e:
  27 0080 00000000 		.space	64
  27      00000000 
  27      00000000 
  27      00000000 
  27      00000000 
  28              		.align	2
  29              	model_coeffs:
  30 00c0 00000000 		.space	64
  30      00000000 
  30      00000000 
  30      00000000 
  30      00000000 
  31              		.align	2
  32              	wptr:
  33 0100 00000000 		.space	4
  34              		.section	.text.canceller_new,"ax",%progbits
  35              		.align	2
  36              		.global	canceller_new
  37              		.thumb
  38              		.thumb_func
  39              		.type	canceller_new, %function
  40              	canceller_new:
  41              	.LFB0:
ARM GAS  C:\Users\pearlstl\AppData\Local\Temp\ccUrdpib.s 			page 2


  42              		.file 1 ".\\canceller.c"
   1:.\canceller.c **** /* ========================================
   2:.\canceller.c ****  *
   3:.\canceller.c ****  * Copyright YOUR COMPANY, THE YEAR
   4:.\canceller.c ****  * All Rights Reserved
   5:.\canceller.c ****  * UNPUBLISHED, LICENSED SOFTWARE.
   6:.\canceller.c ****  *
   7:.\canceller.c ****  * CONFIDENTIAL AND PROPRIETARY INFORMATION
   8:.\canceller.c ****  * WHICH IS THE PROPERTY OF your company.
   9:.\canceller.c ****  *
  10:.\canceller.c ****  * ========================================
  11:.\canceller.c **** */
  12:.\canceller.c **** #include <stdio.h>
  13:.\canceller.c **** #include <UART_1.h>
  14:.\canceller.c **** #include <SW3.h>
  15:.\canceller.c **** 
  16:.\canceller.c **** #include "hs_model.h"                       
  17:.\canceller.c **** #include "mic_model.h"
  18:.\canceller.c **** #include "ANC.h"  
  19:.\canceller.c **** #include "canceller.h"
  20:.\canceller.c **** 
  21:.\canceller.c **** #define FILTER_ORDER (16)
  22:.\canceller.c **** #define FO1 (FILTER_ORDER-1) 
  23:.\canceller.c **** #define MU (0.01)
  24:.\canceller.c **** #define MU_Q20_12 ( (int) (MU * (1<<FP_SHIFT) + 0.5) )
  25:.\canceller.c **** 
  26:.\canceller.c **** static int recent_samps_in[FILTER_ORDER];
  27:.\canceller.c **** static int recent_samps_v[FILTER_ORDER];
  28:.\canceller.c **** static int recent_samps_e[FILTER_ORDER];
  29:.\canceller.c **** static int model_coeffs[FILTER_ORDER];
  30:.\canceller.c **** 
  31:.\canceller.c **** static int wptr;                            //circular buffer write pointer, for recent_samps_in
  32:.\canceller.c **** 
  33:.\canceller.c **** void 
  34:.\canceller.c **** canceller_new(void)
  35:.\canceller.c **** {
  43              		.loc 1 35 0
  44              		.cfi_startproc
  45              		@ args = 0, pretend = 0, frame = 8
  46              		@ frame_needed = 1, uses_anonymous_args = 0
  47              		@ link register save eliminated.
  48 0000 80B4     		push	{r7}
  49              		.cfi_def_cfa_offset 4
  50              		.cfi_offset 7, -4
  51 0002 83B0     		sub	sp, sp, #12
  52              		.cfi_def_cfa_offset 16
  53 0004 00AF     		add	r7, sp, #0
  54              		.cfi_def_cfa_register 7
  36:.\canceller.c ****     int i;
  37:.\canceller.c ****     for (i=0; i<FILTER_ORDER; ++i)
  55              		.loc 1 37 0
  56 0006 0023     		movs	r3, #0
  57 0008 7B60     		str	r3, [r7, #4]
  58 000a 16E0     		b	.L2
  59              	.L3:
  38:.\canceller.c ****     {
  39:.\canceller.c ****         recent_samps_in[i]  = 0;
ARM GAS  C:\Users\pearlstl\AppData\Local\Temp\ccUrdpib.s 			page 3


  60              		.loc 1 39 0 discriminator 2
  61 000c 124B     		ldr	r3, .L4
  62 000e 7A68     		ldr	r2, [r7, #4]
  63 0010 0021     		movs	r1, #0
  64 0012 43F82210 		str	r1, [r3, r2, lsl #2]
  40:.\canceller.c ****         recent_samps_v[i]   = 0;
  65              		.loc 1 40 0 discriminator 2
  66 0016 114B     		ldr	r3, .L4+4
  67 0018 7A68     		ldr	r2, [r7, #4]
  68 001a 0021     		movs	r1, #0
  69 001c 43F82210 		str	r1, [r3, r2, lsl #2]
  41:.\canceller.c ****         recent_samps_e[i]   = 0;
  70              		.loc 1 41 0 discriminator 2
  71 0020 0F4B     		ldr	r3, .L4+8
  72 0022 7A68     		ldr	r2, [r7, #4]
  73 0024 0021     		movs	r1, #0
  74 0026 43F82210 		str	r1, [r3, r2, lsl #2]
  42:.\canceller.c ****         model_coeffs[i]     = 0;    
  75              		.loc 1 42 0 discriminator 2
  76 002a 0E4B     		ldr	r3, .L4+12
  77 002c 7A68     		ldr	r2, [r7, #4]
  78 002e 0021     		movs	r1, #0
  79 0030 43F82210 		str	r1, [r3, r2, lsl #2]
  37:.\canceller.c ****     for (i=0; i<FILTER_ORDER; ++i)
  80              		.loc 1 37 0 discriminator 2
  81 0034 7B68     		ldr	r3, [r7, #4]
  82 0036 0133     		adds	r3, r3, #1
  83 0038 7B60     		str	r3, [r7, #4]
  84              	.L2:
  37:.\canceller.c ****     for (i=0; i<FILTER_ORDER; ++i)
  85              		.loc 1 37 0 is_stmt 0 discriminator 1
  86 003a 7B68     		ldr	r3, [r7, #4]
  87 003c 0F2B     		cmp	r3, #15
  88 003e E5DD     		ble	.L3
  43:.\canceller.c ****     }
  44:.\canceller.c ****     model_coeffs[0]=1;
  89              		.loc 1 44 0 is_stmt 1
  90 0040 084B     		ldr	r3, .L4+12
  91 0042 0122     		movs	r2, #1
  92 0044 1A60     		str	r2, [r3]
  45:.\canceller.c ****     
  46:.\canceller.c ****     wptr = 0;
  93              		.loc 1 46 0
  94 0046 084B     		ldr	r3, .L4+16
  95 0048 0022     		movs	r2, #0
  96 004a 1A60     		str	r2, [r3]
  47:.\canceller.c **** }
  97              		.loc 1 47 0
  98 004c 0C37     		adds	r7, r7, #12
  99 004e BD46     		mov	sp, r7
 100              		@ sp needed
 101 0050 5DF8047B 		ldr	r7, [sp], #4
 102 0054 7047     		bx	lr
 103              	.L5:
 104 0056 00BF     		.align	2
 105              	.L4:
 106 0058 00000000 		.word	recent_samps_in
ARM GAS  C:\Users\pearlstl\AppData\Local\Temp\ccUrdpib.s 			page 4


 107 005c 40000000 		.word	recent_samps_v
 108 0060 80000000 		.word	recent_samps_e
 109 0064 C0000000 		.word	model_coeffs
 110 0068 00010000 		.word	wptr
 111              		.cfi_endproc
 112              	.LFE0:
 113              		.size	canceller_new, .-canceller_new
 114              		.section	.rodata
 115              		.align	2
 116              	.LC0:
 117 0000 72656365 		.ascii	"recent_samps_in:\012\000"
 117      6E745F73 
 117      616D7073 
 117      5F696E3A 
 117      0A00
 118 0012 0000     		.align	2
 119              	.LC1:
 120 0014 2020205B 		.ascii	"   [%2d] %5d\012\000"
 120      2532645D 
 120      20253564 
 120      0A00
 121 0022 0000     		.align	2
 122              	.LC2:
 123 0024 72656365 		.ascii	"recent_samps_v:\012\000"
 123      6E745F73 
 123      616D7073 
 123      5F763A0A 
 123      00
 124 0035 000000   		.align	2
 125              	.LC3:
 126 0038 72656365 		.ascii	"recent_samps_e:\012\000"
 126      6E745F73 
 126      616D7073 
 126      5F653A0A 
 126      00
 127 0049 000000   		.align	2
 128              	.LC4:
 129 004c 6D6F6465 		.ascii	"model_coeffs:\012\000"
 129      6C5F636F 
 129      65666673 
 129      3A0A00
 130 005b 00       		.align	2
 131              	.LC5:
 132 005c 3D3D3D3D 		.ascii	"==================================================="
 132      3D3D3D3D 
 132      3D3D3D3D 
 132      3D3D3D3D 
 132      3D3D3D3D 
 133 008f 3D3D3D3D 		.ascii	"========\012\000"
 133      3D3D3D3D 
 133      0A00
 134 0099 000000   		.section	.text.canceller_new_sample,"ax",%progbits
 135              		.align	2
 136              		.global	canceller_new_sample
 137              		.thumb
 138              		.thumb_func
 139              		.type	canceller_new_sample, %function
ARM GAS  C:\Users\pearlstl\AppData\Local\Temp\ccUrdpib.s 			page 5


 140              	canceller_new_sample:
 141              	.LFB1:
  48:.\canceller.c **** 
  49:.\canceller.c **** 
  50:.\canceller.c **** int 
  51:.\canceller.c **** canceller_new_sample(int input_samp)
  52:.\canceller.c **** {
 142              		.loc 1 52 0
 143              		.cfi_startproc
 144              		@ args = 0, pretend = 0, frame = 288
 145              		@ frame_needed = 1, uses_anonymous_args = 0
 146 0000 B0B5     		push	{r4, r5, r7, lr}
 147              		.cfi_def_cfa_offset 16
 148              		.cfi_offset 4, -16
 149              		.cfi_offset 5, -12
 150              		.cfi_offset 7, -8
 151              		.cfi_offset 14, -4
 152 0002 C8B0     		sub	sp, sp, #288
 153              		.cfi_def_cfa_offset 304
 154 0004 00AF     		add	r7, sp, #0
 155              		.cfi_def_cfa_register 7
 156 0006 3B1D     		adds	r3, r7, #4
 157 0008 1860     		str	r0, [r3]
  53:.\canceller.c ****     //recent_samps_in[FILTER_ORDER - 1];
  54:.\canceller.c ****     int i;
  55:.\canceller.c ****     int sum=0;
 158              		.loc 1 55 0
 159 000a 0023     		movs	r3, #0
 160 000c C7F81831 		str	r3, [r7, #280]
  56:.\canceller.c ****     int tmp;
  57:.\canceller.c ****     int v;
  58:.\canceller.c ****     
  59:.\canceller.c ****     // Deposit the newest input sample at wptr
  60:.\canceller.c ****     recent_samps_in[wptr]= input_samp;
 161              		.loc 1 60 0
 162 0010 AF4B     		ldr	r3, .L19
 163 0012 1A68     		ldr	r2, [r3]
 164 0014 AF4B     		ldr	r3, .L19+4
 165 0016 391D     		adds	r1, r7, #4
 166 0018 0968     		ldr	r1, [r1]
 167 001a 43F82210 		str	r1, [r3, r2, lsl #2]
  61:.\canceller.c ****     
  62:.\canceller.c ****     // Filter the new input sample through the headphone-speaker model
  63:.\canceller.c ****     tmp=hs_model_new_sample(input_samp);
 168              		.loc 1 63 0
 169 001e 3B1D     		adds	r3, r7, #4
 170 0020 1868     		ldr	r0, [r3]
 171 0022 FFF7FEFF 		bl	hs_model_new_sample
 172 0026 C7F81001 		str	r0, [r7, #272]
  64:.\canceller.c ****         
  65:.\canceller.c ****     v=tmp;
 173              		.loc 1 65 0
 174 002a D7F81031 		ldr	r3, [r7, #272]
 175 002e C7F80C31 		str	r3, [r7, #268]
  66:.\canceller.c ****     
  67:.\canceller.c ****     recent_samps_v[wptr]=v;
 176              		.loc 1 67 0
ARM GAS  C:\Users\pearlstl\AppData\Local\Temp\ccUrdpib.s 			page 6


 177 0032 A74B     		ldr	r3, .L19
 178 0034 1A68     		ldr	r2, [r3]
 179 0036 A84B     		ldr	r3, .L19+8
 180 0038 D7F80C11 		ldr	r1, [r7, #268]
 181 003c 43F82210 		str	r1, [r3, r2, lsl #2]
  68:.\canceller.c **** 
  69:.\canceller.c ****     sum=0;
 182              		.loc 1 69 0
 183 0040 0023     		movs	r3, #0
 184 0042 C7F81831 		str	r3, [r7, #280]
  70:.\canceller.c ****     for (i=0 ; i<FILTER_ORDER ; ++i)
 185              		.loc 1 70 0
 186 0046 0023     		movs	r3, #0
 187 0048 C7F81C31 		str	r3, [r7, #284]
 188 004c 1AE0     		b	.L7
 189              	.L8:
  71:.\canceller.c ****     {
  72:.\canceller.c ****         sum+=recent_samps_in[(wptr-i+FILTER_ORDER)&FO1]*model_coeffs[i];
 190              		.loc 1 72 0 discriminator 2
 191 004e A04B     		ldr	r3, .L19
 192 0050 1A68     		ldr	r2, [r3]
 193 0052 D7F81C31 		ldr	r3, [r7, #284]
 194 0056 D31A     		subs	r3, r2, r3
 195 0058 03F00F02 		and	r2, r3, #15
 196 005c 9D4B     		ldr	r3, .L19+4
 197 005e 53F82230 		ldr	r3, [r3, r2, lsl #2]
 198 0062 9E4A     		ldr	r2, .L19+12
 199 0064 D7F81C11 		ldr	r1, [r7, #284]
 200 0068 52F82120 		ldr	r2, [r2, r1, lsl #2]
 201 006c 02FB03F3 		mul	r3, r2, r3
 202 0070 D7F81821 		ldr	r2, [r7, #280]
 203 0074 1344     		add	r3, r3, r2
 204 0076 C7F81831 		str	r3, [r7, #280]
  70:.\canceller.c ****     for (i=0 ; i<FILTER_ORDER ; ++i)
 205              		.loc 1 70 0 discriminator 2
 206 007a D7F81C31 		ldr	r3, [r7, #284]
 207 007e 0133     		adds	r3, r3, #1
 208 0080 C7F81C31 		str	r3, [r7, #284]
 209              	.L7:
  70:.\canceller.c ****     for (i=0 ; i<FILTER_ORDER ; ++i)
 210              		.loc 1 70 0 is_stmt 0 discriminator 1
 211 0084 D7F81C31 		ldr	r3, [r7, #284]
 212 0088 0F2B     		cmp	r3, #15
 213 008a E0DD     		ble	.L8
  73:.\canceller.c ****     }
  74:.\canceller.c **** 
  75:.\canceller.c ****     sum=(sum+FP_ROUND)>>FP_SHIFT;
 214              		.loc 1 75 0 is_stmt 1
 215 008c D7F81831 		ldr	r3, [r7, #280]
 216 0090 03F50063 		add	r3, r3, #2048
 217 0094 1B13     		asrs	r3, r3, #12
 218 0096 C7F81831 		str	r3, [r7, #280]
  76:.\canceller.c **** 
  77:.\canceller.c ****     // For debug, print the state of the canceller
  78:.\canceller.c ****     if (SW3_Read() == 0)
 219              		.loc 1 78 0
 220 009a FFF7FEFF 		bl	SW3_Read
ARM GAS  C:\Users\pearlstl\AppData\Local\Temp\ccUrdpib.s 			page 7


 221 009e 0346     		mov	r3, r0
 222 00a0 002B     		cmp	r3, #0
 223 00a2 40F01C82 		bne	.L9
 224              	.LBB2:
  79:.\canceller.c ****     {
  80:.\canceller.c ****         int     i;
  81:.\canceller.c ****         char    my_string[256];
  82:.\canceller.c ****         
  83:.\canceller.c ****         // recent_samps_in
  84:.\canceller.c ****         sprintf(my_string ,"recent_samps_in:\n");           UART_1_PutArray( (uint8 *) my_string, s
 225              		.loc 1 84 0
 226 00a6 07F10C02 		add	r2, r7, #12
 227 00aa 8D4B     		ldr	r3, .L19+16
 228 00ac 1446     		mov	r4, r2
 229 00ae 1D46     		mov	r5, r3
 230 00b0 0FCD     		ldmia	r5!, {r0, r1, r2, r3}
 231 00b2 0FC4     		stmia	r4!, {r0, r1, r2, r3}
 232 00b4 2B68     		ldr	r3, [r5]
 233 00b6 2380     		strh	r3, [r4]	@ movhi
 234 00b8 07F10C03 		add	r3, r7, #12
 235 00bc 1846     		mov	r0, r3
 236 00be FFF7FEFF 		bl	strlen
 237 00c2 0346     		mov	r3, r0
 238 00c4 DBB2     		uxtb	r3, r3
 239 00c6 07F10C02 		add	r2, r7, #12
 240 00ca 1046     		mov	r0, r2
 241 00cc 1946     		mov	r1, r3
 242 00ce FFF7FEFF 		bl	UART_1_PutArray
  85:.\canceller.c ****         sprintf(my_string ,"\n");                           UART_1_PutArray( (uint8 *) my_string, s
 243              		.loc 1 85 0
 244 00d2 07F10C03 		add	r3, r7, #12
 245 00d6 0A22     		movs	r2, #10
 246 00d8 1A80     		strh	r2, [r3]	@ movhi
 247 00da 07F10C03 		add	r3, r7, #12
 248 00de 1846     		mov	r0, r3
 249 00e0 FFF7FEFF 		bl	strlen
 250 00e4 0346     		mov	r3, r0
 251 00e6 DBB2     		uxtb	r3, r3
 252 00e8 07F10C02 		add	r2, r7, #12
 253 00ec 1046     		mov	r0, r2
 254 00ee 1946     		mov	r1, r3
 255 00f0 FFF7FEFF 		bl	UART_1_PutArray
  86:.\canceller.c ****         for (i = 0; i < 16; ++i)
 256              		.loc 1 86 0
 257 00f4 0023     		movs	r3, #0
 258 00f6 C7F81431 		str	r3, [r7, #276]
 259 00fa 23E0     		b	.L10
 260              	.L11:
  87:.\canceller.c ****         {
  88:.\canceller.c ****             sprintf(my_string ,"   [%2d] %5d\n", i, recent_samps_in[(wptr - i + FILTER_ORDER) & FO1
 261              		.loc 1 88 0 discriminator 2
 262 00fc 744B     		ldr	r3, .L19
 263 00fe 1A68     		ldr	r2, [r3]
 264 0100 D7F81431 		ldr	r3, [r7, #276]
 265 0104 D31A     		subs	r3, r2, r3
 266 0106 03F00F02 		and	r2, r3, #15
 267 010a 724B     		ldr	r3, .L19+4
ARM GAS  C:\Users\pearlstl\AppData\Local\Temp\ccUrdpib.s 			page 8


 268 010c 53F82230 		ldr	r3, [r3, r2, lsl #2]
 269 0110 07F10C02 		add	r2, r7, #12
 270 0114 1046     		mov	r0, r2
 271 0116 7349     		ldr	r1, .L19+20
 272 0118 D7F81421 		ldr	r2, [r7, #276]
 273 011c FFF7FEFF 		bl	sprintf
 274 0120 07F10C03 		add	r3, r7, #12
 275 0124 1846     		mov	r0, r3
 276 0126 FFF7FEFF 		bl	strlen
 277 012a 0346     		mov	r3, r0
 278 012c DBB2     		uxtb	r3, r3
 279 012e 07F10C02 		add	r2, r7, #12
 280 0132 1046     		mov	r0, r2
 281 0134 1946     		mov	r1, r3
 282 0136 FFF7FEFF 		bl	UART_1_PutArray
  86:.\canceller.c ****         for (i = 0; i < 16; ++i)
 283              		.loc 1 86 0 discriminator 2
 284 013a D7F81431 		ldr	r3, [r7, #276]
 285 013e 0133     		adds	r3, r3, #1
 286 0140 C7F81431 		str	r3, [r7, #276]
 287              	.L10:
  86:.\canceller.c ****         for (i = 0; i < 16; ++i)
 288              		.loc 1 86 0 is_stmt 0 discriminator 1
 289 0144 D7F81431 		ldr	r3, [r7, #276]
 290 0148 0F2B     		cmp	r3, #15
 291 014a D7DD     		ble	.L11
  89:.\canceller.c ****         }
  90:.\canceller.c ****         sprintf(my_string ,"\n");                           UART_1_PutArray( (uint8 *) my_string, s
 292              		.loc 1 90 0 is_stmt 1
 293 014c 07F10C03 		add	r3, r7, #12
 294 0150 0A22     		movs	r2, #10
 295 0152 1A80     		strh	r2, [r3]	@ movhi
 296 0154 07F10C03 		add	r3, r7, #12
 297 0158 1846     		mov	r0, r3
 298 015a FFF7FEFF 		bl	strlen
 299 015e 0346     		mov	r3, r0
 300 0160 DBB2     		uxtb	r3, r3
 301 0162 07F10C02 		add	r2, r7, #12
 302 0166 1046     		mov	r0, r2
 303 0168 1946     		mov	r1, r3
 304 016a FFF7FEFF 		bl	UART_1_PutArray
  91:.\canceller.c ****         sprintf(my_string ,"\n");                           UART_1_PutArray( (uint8 *) my_string, s
 305              		.loc 1 91 0
 306 016e 07F10C03 		add	r3, r7, #12
 307 0172 0A22     		movs	r2, #10
 308 0174 1A80     		strh	r2, [r3]	@ movhi
 309 0176 07F10C03 		add	r3, r7, #12
 310 017a 1846     		mov	r0, r3
 311 017c FFF7FEFF 		bl	strlen
 312 0180 0346     		mov	r3, r0
 313 0182 DBB2     		uxtb	r3, r3
 314 0184 07F10C02 		add	r2, r7, #12
 315 0188 1046     		mov	r0, r2
 316 018a 1946     		mov	r1, r3
 317 018c FFF7FEFF 		bl	UART_1_PutArray
  92:.\canceller.c ****         //////////////
  93:.\canceller.c **** 
ARM GAS  C:\Users\pearlstl\AppData\Local\Temp\ccUrdpib.s 			page 9


  94:.\canceller.c ****         // recent_samps_v
  95:.\canceller.c ****         sprintf(my_string ,"recent_samps_v:\n");            UART_1_PutArray( (uint8 *) my_string, s
 318              		.loc 1 95 0
 319 0190 07F10C02 		add	r2, r7, #12
 320 0194 544B     		ldr	r3, .L19+24
 321 0196 1446     		mov	r4, r2
 322 0198 1D46     		mov	r5, r3
 323 019a 0FCD     		ldmia	r5!, {r0, r1, r2, r3}
 324 019c 0FC4     		stmia	r4!, {r0, r1, r2, r3}
 325 019e 2B68     		ldr	r3, [r5]
 326 01a0 2370     		strb	r3, [r4]
 327 01a2 07F10C03 		add	r3, r7, #12
 328 01a6 1846     		mov	r0, r3
 329 01a8 FFF7FEFF 		bl	strlen
 330 01ac 0346     		mov	r3, r0
 331 01ae DBB2     		uxtb	r3, r3
 332 01b0 07F10C02 		add	r2, r7, #12
 333 01b4 1046     		mov	r0, r2
 334 01b6 1946     		mov	r1, r3
 335 01b8 FFF7FEFF 		bl	UART_1_PutArray
  96:.\canceller.c ****         sprintf(my_string ,"\n");                           UART_1_PutArray( (uint8 *) my_string, s
 336              		.loc 1 96 0
 337 01bc 07F10C03 		add	r3, r7, #12
 338 01c0 0A22     		movs	r2, #10
 339 01c2 1A80     		strh	r2, [r3]	@ movhi
 340 01c4 07F10C03 		add	r3, r7, #12
 341 01c8 1846     		mov	r0, r3
 342 01ca FFF7FEFF 		bl	strlen
 343 01ce 0346     		mov	r3, r0
 344 01d0 DBB2     		uxtb	r3, r3
 345 01d2 07F10C02 		add	r2, r7, #12
 346 01d6 1046     		mov	r0, r2
 347 01d8 1946     		mov	r1, r3
 348 01da FFF7FEFF 		bl	UART_1_PutArray
  97:.\canceller.c ****         for (i = 0; i < 16; ++i)
 349              		.loc 1 97 0
 350 01de 0023     		movs	r3, #0
 351 01e0 C7F81431 		str	r3, [r7, #276]
 352 01e4 23E0     		b	.L12
 353              	.L13:
  98:.\canceller.c ****         {
  99:.\canceller.c ****             sprintf(my_string ,"   [%2d] %5d\n", i, recent_samps_v[(wptr - i + FILTER_ORDER) & FO1]
 354              		.loc 1 99 0 discriminator 2
 355 01e6 3A4B     		ldr	r3, .L19
 356 01e8 1A68     		ldr	r2, [r3]
 357 01ea D7F81431 		ldr	r3, [r7, #276]
 358 01ee D31A     		subs	r3, r2, r3
 359 01f0 03F00F02 		and	r2, r3, #15
 360 01f4 384B     		ldr	r3, .L19+8
 361 01f6 53F82230 		ldr	r3, [r3, r2, lsl #2]
 362 01fa 07F10C02 		add	r2, r7, #12
 363 01fe 1046     		mov	r0, r2
 364 0200 3849     		ldr	r1, .L19+20
 365 0202 D7F81421 		ldr	r2, [r7, #276]
 366 0206 FFF7FEFF 		bl	sprintf
 367 020a 07F10C03 		add	r3, r7, #12
 368 020e 1846     		mov	r0, r3
ARM GAS  C:\Users\pearlstl\AppData\Local\Temp\ccUrdpib.s 			page 10


 369 0210 FFF7FEFF 		bl	strlen
 370 0214 0346     		mov	r3, r0
 371 0216 DBB2     		uxtb	r3, r3
 372 0218 07F10C02 		add	r2, r7, #12
 373 021c 1046     		mov	r0, r2
 374 021e 1946     		mov	r1, r3
 375 0220 FFF7FEFF 		bl	UART_1_PutArray
  97:.\canceller.c ****         for (i = 0; i < 16; ++i)
 376              		.loc 1 97 0 discriminator 2
 377 0224 D7F81431 		ldr	r3, [r7, #276]
 378 0228 0133     		adds	r3, r3, #1
 379 022a C7F81431 		str	r3, [r7, #276]
 380              	.L12:
  97:.\canceller.c ****         for (i = 0; i < 16; ++i)
 381              		.loc 1 97 0 is_stmt 0 discriminator 1
 382 022e D7F81431 		ldr	r3, [r7, #276]
 383 0232 0F2B     		cmp	r3, #15
 384 0234 D7DD     		ble	.L13
 100:.\canceller.c ****         }
 101:.\canceller.c ****         sprintf(my_string ,"\n");                           UART_1_PutArray( (uint8 *) my_string, s
 385              		.loc 1 101 0 is_stmt 1
 386 0236 07F10C03 		add	r3, r7, #12
 387 023a 0A22     		movs	r2, #10
 388 023c 1A80     		strh	r2, [r3]	@ movhi
 389 023e 07F10C03 		add	r3, r7, #12
 390 0242 1846     		mov	r0, r3
 391 0244 FFF7FEFF 		bl	strlen
 392 0248 0346     		mov	r3, r0
 393 024a DBB2     		uxtb	r3, r3
 394 024c 07F10C02 		add	r2, r7, #12
 395 0250 1046     		mov	r0, r2
 396 0252 1946     		mov	r1, r3
 397 0254 FFF7FEFF 		bl	UART_1_PutArray
 102:.\canceller.c ****         sprintf(my_string ,"\n");                           UART_1_PutArray( (uint8 *) my_string, s
 398              		.loc 1 102 0
 399 0258 07F10C03 		add	r3, r7, #12
 400 025c 0A22     		movs	r2, #10
 401 025e 1A80     		strh	r2, [r3]	@ movhi
 402 0260 07F10C03 		add	r3, r7, #12
 403 0264 1846     		mov	r0, r3
 404 0266 FFF7FEFF 		bl	strlen
 405 026a 0346     		mov	r3, r0
 406 026c DBB2     		uxtb	r3, r3
 407 026e 07F10C02 		add	r2, r7, #12
 408 0272 1046     		mov	r0, r2
 409 0274 1946     		mov	r1, r3
 410 0276 FFF7FEFF 		bl	UART_1_PutArray
 103:.\canceller.c ****         //////////////
 104:.\canceller.c **** 
 105:.\canceller.c ****         // recent_samps_e
 106:.\canceller.c ****         sprintf(my_string ,"recent_samps_e:\n");            UART_1_PutArray( (uint8 *) my_string, s
 411              		.loc 1 106 0
 412 027a 07F10C02 		add	r2, r7, #12
 413 027e 1B4B     		ldr	r3, .L19+28
 414 0280 1446     		mov	r4, r2
 415 0282 1D46     		mov	r5, r3
 416 0284 0FCD     		ldmia	r5!, {r0, r1, r2, r3}
ARM GAS  C:\Users\pearlstl\AppData\Local\Temp\ccUrdpib.s 			page 11


 417 0286 0FC4     		stmia	r4!, {r0, r1, r2, r3}
 418 0288 2B68     		ldr	r3, [r5]
 419 028a 2370     		strb	r3, [r4]
 420 028c 07F10C03 		add	r3, r7, #12
 421 0290 1846     		mov	r0, r3
 422 0292 FFF7FEFF 		bl	strlen
 423 0296 0346     		mov	r3, r0
 424 0298 DBB2     		uxtb	r3, r3
 425 029a 07F10C02 		add	r2, r7, #12
 426 029e 1046     		mov	r0, r2
 427 02a0 1946     		mov	r1, r3
 428 02a2 FFF7FEFF 		bl	UART_1_PutArray
 107:.\canceller.c ****         sprintf(my_string ,"\n");                           UART_1_PutArray( (uint8 *) my_string, s
 429              		.loc 1 107 0
 430 02a6 07F10C03 		add	r3, r7, #12
 431 02aa 0A22     		movs	r2, #10
 432 02ac 1A80     		strh	r2, [r3]	@ movhi
 433 02ae 07F10C03 		add	r3, r7, #12
 434 02b2 1846     		mov	r0, r3
 435 02b4 FFF7FEFF 		bl	strlen
 436 02b8 0346     		mov	r3, r0
 437 02ba DBB2     		uxtb	r3, r3
 438 02bc 07F10C02 		add	r2, r7, #12
 439 02c0 1046     		mov	r0, r2
 440 02c2 1946     		mov	r1, r3
 441 02c4 FFF7FEFF 		bl	UART_1_PutArray
 108:.\canceller.c ****         for (i = 0; i < 16; ++i)
 442              		.loc 1 108 0
 443 02c8 0023     		movs	r3, #0
 444 02ca C7F81431 		str	r3, [r7, #276]
 445 02ce 33E0     		b	.L14
 446              	.L20:
 447              		.align	2
 448              	.L19:
 449 02d0 00010000 		.word	wptr
 450 02d4 00000000 		.word	recent_samps_in
 451 02d8 40000000 		.word	recent_samps_v
 452 02dc C0000000 		.word	model_coeffs
 453 02e0 00000000 		.word	.LC0
 454 02e4 14000000 		.word	.LC1
 455 02e8 24000000 		.word	.LC2
 456 02ec 38000000 		.word	.LC3
 457              	.L15:
 109:.\canceller.c ****         {
 110:.\canceller.c ****             sprintf(my_string ,"   [%2d] %5d\n", i, recent_samps_e[(wptr - i + FILTER_ORDER) & FO1]
 458              		.loc 1 110 0 discriminator 2
 459 02f0 824B     		ldr	r3, .L21
 460 02f2 1A68     		ldr	r2, [r3]
 461 02f4 D7F81431 		ldr	r3, [r7, #276]
 462 02f8 D31A     		subs	r3, r2, r3
 463 02fa 03F00F02 		and	r2, r3, #15
 464 02fe 804B     		ldr	r3, .L21+4
 465 0300 53F82230 		ldr	r3, [r3, r2, lsl #2]
 466 0304 07F10C02 		add	r2, r7, #12
 467 0308 1046     		mov	r0, r2
 468 030a 7E49     		ldr	r1, .L21+8
 469 030c D7F81421 		ldr	r2, [r7, #276]
ARM GAS  C:\Users\pearlstl\AppData\Local\Temp\ccUrdpib.s 			page 12


 470 0310 FFF7FEFF 		bl	sprintf
 471 0314 07F10C03 		add	r3, r7, #12
 472 0318 1846     		mov	r0, r3
 473 031a FFF7FEFF 		bl	strlen
 474 031e 0346     		mov	r3, r0
 475 0320 DBB2     		uxtb	r3, r3
 476 0322 07F10C02 		add	r2, r7, #12
 477 0326 1046     		mov	r0, r2
 478 0328 1946     		mov	r1, r3
 479 032a FFF7FEFF 		bl	UART_1_PutArray
 108:.\canceller.c ****         for (i = 0; i < 16; ++i)
 480              		.loc 1 108 0 discriminator 2
 481 032e D7F81431 		ldr	r3, [r7, #276]
 482 0332 0133     		adds	r3, r3, #1
 483 0334 C7F81431 		str	r3, [r7, #276]
 484              	.L14:
 108:.\canceller.c ****         for (i = 0; i < 16; ++i)
 485              		.loc 1 108 0 is_stmt 0 discriminator 1
 486 0338 D7F81431 		ldr	r3, [r7, #276]
 487 033c 0F2B     		cmp	r3, #15
 488 033e D7DD     		ble	.L15
 111:.\canceller.c ****         }
 112:.\canceller.c ****         sprintf(my_string ,"\n");                           UART_1_PutArray( (uint8 *) my_string, s
 489              		.loc 1 112 0 is_stmt 1
 490 0340 07F10C03 		add	r3, r7, #12
 491 0344 0A22     		movs	r2, #10
 492 0346 1A80     		strh	r2, [r3]	@ movhi
 493 0348 07F10C03 		add	r3, r7, #12
 494 034c 1846     		mov	r0, r3
 495 034e FFF7FEFF 		bl	strlen
 496 0352 0346     		mov	r3, r0
 497 0354 DBB2     		uxtb	r3, r3
 498 0356 07F10C02 		add	r2, r7, #12
 499 035a 1046     		mov	r0, r2
 500 035c 1946     		mov	r1, r3
 501 035e FFF7FEFF 		bl	UART_1_PutArray
 113:.\canceller.c ****         sprintf(my_string ,"\n");                           UART_1_PutArray( (uint8 *) my_string, s
 502              		.loc 1 113 0
 503 0362 07F10C03 		add	r3, r7, #12
 504 0366 0A22     		movs	r2, #10
 505 0368 1A80     		strh	r2, [r3]	@ movhi
 506 036a 07F10C03 		add	r3, r7, #12
 507 036e 1846     		mov	r0, r3
 508 0370 FFF7FEFF 		bl	strlen
 509 0374 0346     		mov	r3, r0
 510 0376 DBB2     		uxtb	r3, r3
 511 0378 07F10C02 		add	r2, r7, #12
 512 037c 1046     		mov	r0, r2
 513 037e 1946     		mov	r1, r3
 514 0380 FFF7FEFF 		bl	UART_1_PutArray
 114:.\canceller.c ****         //////////////
 115:.\canceller.c **** 
 116:.\canceller.c ****         // model_coeffs
 117:.\canceller.c ****         sprintf(my_string ,"model_coeffs:\n");              UART_1_PutArray( (uint8 *) my_string, s
 515              		.loc 1 117 0
 516 0384 07F10C02 		add	r2, r7, #12
 517 0388 5F4B     		ldr	r3, .L21+12
ARM GAS  C:\Users\pearlstl\AppData\Local\Temp\ccUrdpib.s 			page 13


 518 038a 1446     		mov	r4, r2
 519 038c 0FCB     		ldmia	r3, {r0, r1, r2, r3}
 520 038e 07C4     		stmia	r4!, {r0, r1, r2}
 521 0390 2380     		strh	r3, [r4]	@ movhi
 522 0392 0234     		adds	r4, r4, #2
 523 0394 1B0C     		lsrs	r3, r3, #16
 524 0396 2370     		strb	r3, [r4]
 525 0398 07F10C03 		add	r3, r7, #12
 526 039c 1846     		mov	r0, r3
 527 039e FFF7FEFF 		bl	strlen
 528 03a2 0346     		mov	r3, r0
 529 03a4 DBB2     		uxtb	r3, r3
 530 03a6 07F10C02 		add	r2, r7, #12
 531 03aa 1046     		mov	r0, r2
 532 03ac 1946     		mov	r1, r3
 533 03ae FFF7FEFF 		bl	UART_1_PutArray
 118:.\canceller.c ****         sprintf(my_string ,"\n");                           UART_1_PutArray( (uint8 *) my_string, s
 534              		.loc 1 118 0
 535 03b2 07F10C03 		add	r3, r7, #12
 536 03b6 0A22     		movs	r2, #10
 537 03b8 1A80     		strh	r2, [r3]	@ movhi
 538 03ba 07F10C03 		add	r3, r7, #12
 539 03be 1846     		mov	r0, r3
 540 03c0 FFF7FEFF 		bl	strlen
 541 03c4 0346     		mov	r3, r0
 542 03c6 DBB2     		uxtb	r3, r3
 543 03c8 07F10C02 		add	r2, r7, #12
 544 03cc 1046     		mov	r0, r2
 545 03ce 1946     		mov	r1, r3
 546 03d0 FFF7FEFF 		bl	UART_1_PutArray
 119:.\canceller.c ****         for (i = 0; i < 16; ++i)
 547              		.loc 1 119 0
 548 03d4 0023     		movs	r3, #0
 549 03d6 C7F81431 		str	r3, [r7, #276]
 550 03da 1EE0     		b	.L16
 551              	.L17:
 120:.\canceller.c ****         {
 121:.\canceller.c ****             sprintf(my_string ,"   [%2d] %5d\n", i, model_coeffs[i] );  UART_1_PutArray( (uint8 *) 
 552              		.loc 1 121 0 discriminator 2
 553 03dc 4B4B     		ldr	r3, .L21+16
 554 03de D7F81421 		ldr	r2, [r7, #276]
 555 03e2 53F82230 		ldr	r3, [r3, r2, lsl #2]
 556 03e6 07F10C02 		add	r2, r7, #12
 557 03ea 1046     		mov	r0, r2
 558 03ec 4549     		ldr	r1, .L21+8
 559 03ee D7F81421 		ldr	r2, [r7, #276]
 560 03f2 FFF7FEFF 		bl	sprintf
 561 03f6 07F10C03 		add	r3, r7, #12
 562 03fa 1846     		mov	r0, r3
 563 03fc FFF7FEFF 		bl	strlen
 564 0400 0346     		mov	r3, r0
 565 0402 DBB2     		uxtb	r3, r3
 566 0404 07F10C02 		add	r2, r7, #12
 567 0408 1046     		mov	r0, r2
 568 040a 1946     		mov	r1, r3
 569 040c FFF7FEFF 		bl	UART_1_PutArray
 119:.\canceller.c ****         for (i = 0; i < 16; ++i)
ARM GAS  C:\Users\pearlstl\AppData\Local\Temp\ccUrdpib.s 			page 14


 570              		.loc 1 119 0 discriminator 2
 571 0410 D7F81431 		ldr	r3, [r7, #276]
 572 0414 0133     		adds	r3, r3, #1
 573 0416 C7F81431 		str	r3, [r7, #276]
 574              	.L16:
 119:.\canceller.c ****         for (i = 0; i < 16; ++i)
 575              		.loc 1 119 0 is_stmt 0 discriminator 1
 576 041a D7F81431 		ldr	r3, [r7, #276]
 577 041e 0F2B     		cmp	r3, #15
 578 0420 DCDD     		ble	.L17
 122:.\canceller.c ****         }
 123:.\canceller.c ****         sprintf(my_string ,"\n");                           UART_1_PutArray( (uint8 *) my_string, s
 579              		.loc 1 123 0 is_stmt 1
 580 0422 07F10C03 		add	r3, r7, #12
 581 0426 0A22     		movs	r2, #10
 582 0428 1A80     		strh	r2, [r3]	@ movhi
 583 042a 07F10C03 		add	r3, r7, #12
 584 042e 1846     		mov	r0, r3
 585 0430 FFF7FEFF 		bl	strlen
 586 0434 0346     		mov	r3, r0
 587 0436 DBB2     		uxtb	r3, r3
 588 0438 07F10C02 		add	r2, r7, #12
 589 043c 1046     		mov	r0, r2
 590 043e 1946     		mov	r1, r3
 591 0440 FFF7FEFF 		bl	UART_1_PutArray
 124:.\canceller.c ****         sprintf(my_string ,"\n");                           UART_1_PutArray( (uint8 *) my_string, s
 592              		.loc 1 124 0
 593 0444 07F10C03 		add	r3, r7, #12
 594 0448 0A22     		movs	r2, #10
 595 044a 1A80     		strh	r2, [r3]	@ movhi
 596 044c 07F10C03 		add	r3, r7, #12
 597 0450 1846     		mov	r0, r3
 598 0452 FFF7FEFF 		bl	strlen
 599 0456 0346     		mov	r3, r0
 600 0458 DBB2     		uxtb	r3, r3
 601 045a 07F10C02 		add	r2, r7, #12
 602 045e 1046     		mov	r0, r2
 603 0460 1946     		mov	r1, r3
 604 0462 FFF7FEFF 		bl	UART_1_PutArray
 125:.\canceller.c ****         //////////////
 126:.\canceller.c ****         
 127:.\canceller.c ****         CyDelay(1000);
 605              		.loc 1 127 0
 606 0466 4FF47A70 		mov	r0, #1000
 607 046a FFF7FEFF 		bl	CyDelay
 128:.\canceller.c ****         sprintf(my_string ,"===========================================================\n");       
 608              		.loc 1 128 0
 609 046e 07F10C02 		add	r2, r7, #12
 610 0472 274B     		ldr	r3, .L21+20
 611 0474 1446     		mov	r4, r2
 612 0476 1D46     		mov	r5, r3
 613 0478 0FCD     		ldmia	r5!, {r0, r1, r2, r3}
 614 047a 0FC4     		stmia	r4!, {r0, r1, r2, r3}
 615 047c 0FCD     		ldmia	r5!, {r0, r1, r2, r3}
 616 047e 0FC4     		stmia	r4!, {r0, r1, r2, r3}
 617 0480 0FCD     		ldmia	r5!, {r0, r1, r2, r3}
 618 0482 0FC4     		stmia	r4!, {r0, r1, r2, r3}
ARM GAS  C:\Users\pearlstl\AppData\Local\Temp\ccUrdpib.s 			page 15


 619 0484 95E80F00 		ldmia	r5, {r0, r1, r2, r3}
 620 0488 07C4     		stmia	r4!, {r0, r1, r2}
 621 048a 2370     		strb	r3, [r4]
 622 048c 07F10C03 		add	r3, r7, #12
 623 0490 1846     		mov	r0, r3
 624 0492 FFF7FEFF 		bl	strlen
 625 0496 0346     		mov	r3, r0
 626 0498 DBB2     		uxtb	r3, r3
 627 049a 07F10C02 		add	r2, r7, #12
 628 049e 1046     		mov	r0, r2
 629 04a0 1946     		mov	r1, r3
 630 04a2 FFF7FEFF 		bl	UART_1_PutArray
 129:.\canceller.c ****         sprintf(my_string ,"===========================================================\n");       
 631              		.loc 1 129 0
 632 04a6 07F10C02 		add	r2, r7, #12
 633 04aa 194B     		ldr	r3, .L21+20
 634 04ac 1446     		mov	r4, r2
 635 04ae 1D46     		mov	r5, r3
 636 04b0 0FCD     		ldmia	r5!, {r0, r1, r2, r3}
 637 04b2 0FC4     		stmia	r4!, {r0, r1, r2, r3}
 638 04b4 0FCD     		ldmia	r5!, {r0, r1, r2, r3}
 639 04b6 0FC4     		stmia	r4!, {r0, r1, r2, r3}
 640 04b8 0FCD     		ldmia	r5!, {r0, r1, r2, r3}
 641 04ba 0FC4     		stmia	r4!, {r0, r1, r2, r3}
 642 04bc 95E80F00 		ldmia	r5, {r0, r1, r2, r3}
 643 04c0 07C4     		stmia	r4!, {r0, r1, r2}
 644 04c2 2370     		strb	r3, [r4]
 645 04c4 07F10C03 		add	r3, r7, #12
 646 04c8 1846     		mov	r0, r3
 647 04ca FFF7FEFF 		bl	strlen
 648 04ce 0346     		mov	r3, r0
 649 04d0 DBB2     		uxtb	r3, r3
 650 04d2 07F10C02 		add	r2, r7, #12
 651 04d6 1046     		mov	r0, r2
 652 04d8 1946     		mov	r1, r3
 653 04da FFF7FEFF 		bl	UART_1_PutArray
 654              	.L9:
 655              	.LBE2:
 130:.\canceller.c ****     }
 131:.\canceller.c ****     wptr=(wptr+1)&FO1;
 656              		.loc 1 131 0
 657 04de 074B     		ldr	r3, .L21
 658 04e0 1B68     		ldr	r3, [r3]
 659 04e2 0133     		adds	r3, r3, #1
 660 04e4 03F00F02 		and	r2, r3, #15
 661 04e8 044B     		ldr	r3, .L21
 662 04ea 1A60     		str	r2, [r3]
 132:.\canceller.c ****     
 133:.\canceller.c ****     return sum;
 663              		.loc 1 133 0
 664 04ec D7F81831 		ldr	r3, [r7, #280]
 134:.\canceller.c **** }
 665              		.loc 1 134 0
 666 04f0 1846     		mov	r0, r3
 667 04f2 07F59077 		add	r7, r7, #288
 668 04f6 BD46     		mov	sp, r7
 669              		@ sp needed
ARM GAS  C:\Users\pearlstl\AppData\Local\Temp\ccUrdpib.s 			page 16


 670 04f8 B0BD     		pop	{r4, r5, r7, pc}
 671              	.L22:
 672 04fa 00BF     		.align	2
 673              	.L21:
 674 04fc 00010000 		.word	wptr
 675 0500 80000000 		.word	recent_samps_e
 676 0504 14000000 		.word	.LC1
 677 0508 4C000000 		.word	.LC4
 678 050c C0000000 		.word	model_coeffs
 679 0510 5C000000 		.word	.LC5
 680              		.cfi_endproc
 681              	.LFE1:
 682              		.size	canceller_new_sample, .-canceller_new_sample
 683              		.section	.text.canceller_coeff_update,"ax",%progbits
 684              		.align	2
 685              		.global	canceller_coeff_update
 686              		.thumb
 687              		.thumb_func
 688              		.type	canceller_coeff_update, %function
 689              	canceller_coeff_update:
 690              	.LFB2:
 135:.\canceller.c **** 
 136:.\canceller.c **** 
 137:.\canceller.c **** void
 138:.\canceller.c **** canceller_coeff_update (int e_)
 139:.\canceller.c **** {
 691              		.loc 1 139 0
 692              		.cfi_startproc
 693              		@ args = 0, pretend = 0, frame = 16
 694              		@ frame_needed = 1, uses_anonymous_args = 0
 695              		@ link register save eliminated.
 696 0000 80B4     		push	{r7}
 697              		.cfi_def_cfa_offset 4
 698              		.cfi_offset 7, -4
 699 0002 85B0     		sub	sp, sp, #20
 700              		.cfi_def_cfa_offset 24
 701 0004 00AF     		add	r7, sp, #0
 702              		.cfi_def_cfa_register 7
 703 0006 7860     		str	r0, [r7, #4]
 140:.\canceller.c ****     int i;
 141:.\canceller.c **** 
 142:.\canceller.c ****     recent_samps_e[wptr] = e_;
 704              		.loc 1 142 0
 705 0008 1C4B     		ldr	r3, .L26
 706 000a 1A68     		ldr	r2, [r3]
 707 000c 1C4B     		ldr	r3, .L26+4
 708 000e 7968     		ldr	r1, [r7, #4]
 709 0010 43F82210 		str	r1, [r3, r2, lsl #2]
 143:.\canceller.c ****     
 144:.\canceller.c ****     for (i=0 ; i<FILTER_ORDER;++i)
 710              		.loc 1 144 0
 711 0014 0023     		movs	r3, #0
 712 0016 FB60     		str	r3, [r7, #12]
 713 0018 27E0     		b	.L24
 714              	.L25:
 715              	.LBB3:
 145:.\canceller.c ****     {
ARM GAS  C:\Users\pearlstl\AppData\Local\Temp\ccUrdpib.s 			page 17


 146:.\canceller.c ****         int temp;
 147:.\canceller.c ****         
 148:.\canceller.c ****         // Compute tap weight update:
 149:.\canceller.c ****         //
 150:.\canceller.c ****         //   w[k] = w[k] - u * e * v[n-k]
 151:.\canceller.c ****         //
 152:.\canceller.c ****         // where n is the current time.
 153:.\canceller.c ****        
 154:.\canceller.c ****         // So - we assume that the new sample has been done for the current time,
 155:.\canceller.c ****         // which results in wptr pointing to the next location (one beyond the current
 156:.\canceller.c ****         // location in recent_samps_v).  That's why we have the '- 1' in the expression below.
 157:.\canceller.c ****         temp = (e_*recent_samps_v[(wptr - 1 - i + FILTER_ORDER) & FO1]+FP_ROUND)>>FP_SHIFT;        
 716              		.loc 1 157 0 discriminator 2
 717 001a 184B     		ldr	r3, .L26
 718 001c 1B68     		ldr	r3, [r3]
 719 001e 5A1E     		subs	r2, r3, #1
 720 0020 FB68     		ldr	r3, [r7, #12]
 721 0022 D31A     		subs	r3, r2, r3
 722 0024 03F00F02 		and	r2, r3, #15
 723 0028 164B     		ldr	r3, .L26+8
 724 002a 53F82230 		ldr	r3, [r3, r2, lsl #2]
 725 002e 7A68     		ldr	r2, [r7, #4]
 726 0030 02FB03F3 		mul	r3, r2, r3
 727 0034 03F50063 		add	r3, r3, #2048
 728 0038 1B13     		asrs	r3, r3, #12
 729 003a BB60     		str	r3, [r7, #8]
 158:.\canceller.c ****         temp = (MU_Q20_12*temp+FP_ROUND)>>FP_SHIFT;                                                
 730              		.loc 1 158 0 discriminator 2
 731 003c BA68     		ldr	r2, [r7, #8]
 732 003e 1346     		mov	r3, r2
 733 0040 9B00     		lsls	r3, r3, #2
 734 0042 1344     		add	r3, r3, r2
 735 0044 DB00     		lsls	r3, r3, #3
 736 0046 1344     		add	r3, r3, r2
 737 0048 03F50063 		add	r3, r3, #2048
 738 004c 1B13     		asrs	r3, r3, #12
 739 004e BB60     		str	r3, [r7, #8]
 159:.\canceller.c **** 
 160:.\canceller.c ****         model_coeffs[i] = model_coeffs[i] - temp;
 740              		.loc 1 160 0 discriminator 2
 741 0050 0D4B     		ldr	r3, .L26+12
 742 0052 FA68     		ldr	r2, [r7, #12]
 743 0054 53F82220 		ldr	r2, [r3, r2, lsl #2]
 744 0058 BB68     		ldr	r3, [r7, #8]
 745 005a D11A     		subs	r1, r2, r3
 746 005c 0A4B     		ldr	r3, .L26+12
 747 005e FA68     		ldr	r2, [r7, #12]
 748 0060 43F82210 		str	r1, [r3, r2, lsl #2]
 749              	.LBE3:
 144:.\canceller.c ****     for (i=0 ; i<FILTER_ORDER;++i)
 750              		.loc 1 144 0 discriminator 2
 751 0064 FB68     		ldr	r3, [r7, #12]
 752 0066 0133     		adds	r3, r3, #1
 753 0068 FB60     		str	r3, [r7, #12]
 754              	.L24:
 144:.\canceller.c ****     for (i=0 ; i<FILTER_ORDER;++i)
 755              		.loc 1 144 0 is_stmt 0 discriminator 1
ARM GAS  C:\Users\pearlstl\AppData\Local\Temp\ccUrdpib.s 			page 18


 756 006a FB68     		ldr	r3, [r7, #12]
 757 006c 0F2B     		cmp	r3, #15
 758 006e D4DD     		ble	.L25
 161:.\canceller.c ****     }
 162:.\canceller.c **** }
 759              		.loc 1 162 0 is_stmt 1
 760 0070 1437     		adds	r7, r7, #20
 761 0072 BD46     		mov	sp, r7
 762              		@ sp needed
 763 0074 5DF8047B 		ldr	r7, [sp], #4
 764 0078 7047     		bx	lr
 765              	.L27:
 766 007a 00BF     		.align	2
 767              	.L26:
 768 007c 00010000 		.word	wptr
 769 0080 80000000 		.word	recent_samps_e
 770 0084 40000000 		.word	recent_samps_v
 771 0088 C0000000 		.word	model_coeffs
 772              		.cfi_endproc
 773              	.LFE2:
 774              		.size	canceller_coeff_update, .-canceller_coeff_update
 775              		.text
 776              	.Letext0:
 777              		.file 2 "Generated_Source\\PSoC5/cytypes.h"
 778              		.section	.debug_info,"",%progbits
 779              	.Ldebug_info0:
 780 0000 EF010000 		.4byte	0x1ef
 781 0004 0400     		.2byte	0x4
 782 0006 00000000 		.4byte	.Ldebug_abbrev0
 783 000a 04       		.byte	0x4
 784 000b 01       		.uleb128 0x1
 785 000c 94000000 		.4byte	.LASF23
 786 0010 01       		.byte	0x1
 787 0011 99010000 		.4byte	.LASF24
 788 0015 28000000 		.4byte	.LASF25
 789 0019 00000000 		.4byte	.Ldebug_ranges0+0
 790 001d 00000000 		.4byte	0
 791 0021 00000000 		.4byte	.Ldebug_line0
 792 0025 02       		.uleb128 0x2
 793 0026 04       		.byte	0x4
 794 0027 07       		.byte	0x7
 795 0028 46010000 		.4byte	.LASF0
 796 002c 03       		.uleb128 0x3
 797 002d 04       		.byte	0x4
 798 002e 05       		.byte	0x5
 799 002f 696E7400 		.ascii	"int\000"
 800 0033 02       		.uleb128 0x2
 801 0034 01       		.byte	0x1
 802 0035 06       		.byte	0x6
 803 0036 F6010000 		.4byte	.LASF1
 804 003a 02       		.uleb128 0x2
 805 003b 01       		.byte	0x1
 806 003c 08       		.byte	0x8
 807 003d 86000000 		.4byte	.LASF2
 808 0041 02       		.uleb128 0x2
 809 0042 02       		.byte	0x2
 810 0043 05       		.byte	0x5
ARM GAS  C:\Users\pearlstl\AppData\Local\Temp\ccUrdpib.s 			page 19


 811 0044 BE010000 		.4byte	.LASF3
 812 0048 02       		.uleb128 0x2
 813 0049 02       		.byte	0x2
 814 004a 07       		.byte	0x7
 815 004b 0F000000 		.4byte	.LASF4
 816 004f 02       		.uleb128 0x2
 817 0050 04       		.byte	0x4
 818 0051 05       		.byte	0x5
 819 0052 DD010000 		.4byte	.LASF5
 820 0056 02       		.uleb128 0x2
 821 0057 04       		.byte	0x4
 822 0058 07       		.byte	0x7
 823 0059 10010000 		.4byte	.LASF6
 824 005d 02       		.uleb128 0x2
 825 005e 08       		.byte	0x8
 826 005f 05       		.byte	0x5
 827 0060 8B010000 		.4byte	.LASF7
 828 0064 02       		.uleb128 0x2
 829 0065 08       		.byte	0x8
 830 0066 07       		.byte	0x7
 831 0067 5D010000 		.4byte	.LASF8
 832 006b 02       		.uleb128 0x2
 833 006c 04       		.byte	0x4
 834 006d 07       		.byte	0x7
 835 006e 82010000 		.4byte	.LASF9
 836 0072 02       		.uleb128 0x2
 837 0073 01       		.byte	0x1
 838 0074 08       		.byte	0x8
 839 0075 E6010000 		.4byte	.LASF10
 840 0079 04       		.uleb128 0x4
 841 007a 27010000 		.4byte	.LASF26
 842 007e 02       		.byte	0x2
 843 007f 5B       		.byte	0x5b
 844 0080 3A000000 		.4byte	0x3a
 845 0084 02       		.uleb128 0x2
 846 0085 04       		.byte	0x4
 847 0086 04       		.byte	0x4
 848 0087 22000000 		.4byte	.LASF11
 849 008b 02       		.uleb128 0x2
 850 008c 08       		.byte	0x8
 851 008d 04       		.byte	0x4
 852 008e 3A010000 		.4byte	.LASF12
 853 0092 05       		.uleb128 0x5
 854 0093 74010000 		.4byte	.LASF14
 855 0097 01       		.byte	0x1
 856 0098 22       		.byte	0x22
 857 0099 00000000 		.4byte	.LFB0
 858 009d 6C000000 		.4byte	.LFE0-.LFB0
 859 00a1 01       		.uleb128 0x1
 860 00a2 9C       		.byte	0x9c
 861 00a3 B4000000 		.4byte	0xb4
 862 00a7 06       		.uleb128 0x6
 863 00a8 6900     		.ascii	"i\000"
 864 00aa 01       		.byte	0x1
 865 00ab 24       		.byte	0x24
 866 00ac 2C000000 		.4byte	0x2c
 867 00b0 02       		.uleb128 0x2
ARM GAS  C:\Users\pearlstl\AppData\Local\Temp\ccUrdpib.s 			page 20


 868 00b1 91       		.byte	0x91
 869 00b2 74       		.sleb128 -12
 870 00b3 00       		.byte	0
 871 00b4 07       		.uleb128 0x7
 872 00b5 C8010000 		.4byte	.LASF27
 873 00b9 01       		.byte	0x1
 874 00ba 33       		.byte	0x33
 875 00bb 2C000000 		.4byte	0x2c
 876 00bf 00000000 		.4byte	.LFB1
 877 00c3 14050000 		.4byte	.LFE1-.LFB1
 878 00c7 01       		.uleb128 0x1
 879 00c8 9C       		.byte	0x9c
 880 00c9 36010000 		.4byte	0x136
 881 00cd 08       		.uleb128 0x8
 882 00ce EB010000 		.4byte	.LASF16
 883 00d2 01       		.byte	0x1
 884 00d3 33       		.byte	0x33
 885 00d4 2C000000 		.4byte	0x2c
 886 00d8 03       		.uleb128 0x3
 887 00d9 91       		.byte	0x91
 888 00da D47D     		.sleb128 -300
 889 00dc 06       		.uleb128 0x6
 890 00dd 6900     		.ascii	"i\000"
 891 00df 01       		.byte	0x1
 892 00e0 36       		.byte	0x36
 893 00e1 2C000000 		.4byte	0x2c
 894 00e5 02       		.uleb128 0x2
 895 00e6 91       		.byte	0x91
 896 00e7 6C       		.sleb128 -20
 897 00e8 06       		.uleb128 0x6
 898 00e9 73756D00 		.ascii	"sum\000"
 899 00ed 01       		.byte	0x1
 900 00ee 37       		.byte	0x37
 901 00ef 2C000000 		.4byte	0x2c
 902 00f3 02       		.uleb128 0x2
 903 00f4 91       		.byte	0x91
 904 00f5 68       		.sleb128 -24
 905 00f6 06       		.uleb128 0x6
 906 00f7 746D7000 		.ascii	"tmp\000"
 907 00fb 01       		.byte	0x1
 908 00fc 38       		.byte	0x38
 909 00fd 2C000000 		.4byte	0x2c
 910 0101 02       		.uleb128 0x2
 911 0102 91       		.byte	0x91
 912 0103 60       		.sleb128 -32
 913 0104 06       		.uleb128 0x6
 914 0105 7600     		.ascii	"v\000"
 915 0107 01       		.byte	0x1
 916 0108 39       		.byte	0x39
 917 0109 2C000000 		.4byte	0x2c
 918 010d 02       		.uleb128 0x2
 919 010e 91       		.byte	0x91
 920 010f 5C       		.sleb128 -36
 921 0110 09       		.uleb128 0x9
 922 0111 A6000000 		.4byte	.LBB2
 923 0115 38040000 		.4byte	.LBE2-.LBB2
 924 0119 06       		.uleb128 0x6
ARM GAS  C:\Users\pearlstl\AppData\Local\Temp\ccUrdpib.s 			page 21


 925 011a 6900     		.ascii	"i\000"
 926 011c 01       		.byte	0x1
 927 011d 50       		.byte	0x50
 928 011e 2C000000 		.4byte	0x2c
 929 0122 02       		.uleb128 0x2
 930 0123 91       		.byte	0x91
 931 0124 64       		.sleb128 -28
 932 0125 0A       		.uleb128 0xa
 933 0126 53010000 		.4byte	.LASF13
 934 012a 01       		.byte	0x1
 935 012b 51       		.byte	0x51
 936 012c 36010000 		.4byte	0x136
 937 0130 03       		.uleb128 0x3
 938 0131 91       		.byte	0x91
 939 0132 DC7D     		.sleb128 -292
 940 0134 00       		.byte	0
 941 0135 00       		.byte	0
 942 0136 0B       		.uleb128 0xb
 943 0137 72000000 		.4byte	0x72
 944 013b 46010000 		.4byte	0x146
 945 013f 0C       		.uleb128 0xc
 946 0140 6B000000 		.4byte	0x6b
 947 0144 FF       		.byte	0xff
 948 0145 00       		.byte	0
 949 0146 05       		.uleb128 0x5
 950 0147 A7010000 		.4byte	.LASF15
 951 014b 01       		.byte	0x1
 952 014c 8A       		.byte	0x8a
 953 014d 00000000 		.4byte	.LFB2
 954 0151 8C000000 		.4byte	.LFE2-.LFB2
 955 0155 01       		.uleb128 0x1
 956 0156 9C       		.byte	0x9c
 957 0157 8D010000 		.4byte	0x18d
 958 015b 0D       		.uleb128 0xd
 959 015c 655F00   		.ascii	"e_\000"
 960 015f 01       		.byte	0x1
 961 0160 8A       		.byte	0x8a
 962 0161 2C000000 		.4byte	0x2c
 963 0165 02       		.uleb128 0x2
 964 0166 91       		.byte	0x91
 965 0167 6C       		.sleb128 -20
 966 0168 06       		.uleb128 0x6
 967 0169 6900     		.ascii	"i\000"
 968 016b 01       		.byte	0x1
 969 016c 8C       		.byte	0x8c
 970 016d 2C000000 		.4byte	0x2c
 971 0171 02       		.uleb128 0x2
 972 0172 91       		.byte	0x91
 973 0173 74       		.sleb128 -12
 974 0174 09       		.uleb128 0x9
 975 0175 1A000000 		.4byte	.LBB3
 976 0179 4A000000 		.4byte	.LBE3-.LBB3
 977 017d 0A       		.uleb128 0xa
 978 017e 22010000 		.4byte	.LASF17
 979 0182 01       		.byte	0x1
 980 0183 92       		.byte	0x92
 981 0184 2C000000 		.4byte	0x2c
ARM GAS  C:\Users\pearlstl\AppData\Local\Temp\ccUrdpib.s 			page 22


 982 0188 02       		.uleb128 0x2
 983 0189 91       		.byte	0x91
 984 018a 70       		.sleb128 -16
 985 018b 00       		.byte	0
 986 018c 00       		.byte	0
 987 018d 0B       		.uleb128 0xb
 988 018e 2C000000 		.4byte	0x2c
 989 0192 9D010000 		.4byte	0x19d
 990 0196 0C       		.uleb128 0xc
 991 0197 6B000000 		.4byte	0x6b
 992 019b 0F       		.byte	0xf
 993 019c 00       		.byte	0
 994 019d 0A       		.uleb128 0xa
 995 019e 02020000 		.4byte	.LASF18
 996 01a2 01       		.byte	0x1
 997 01a3 1A       		.byte	0x1a
 998 01a4 8D010000 		.4byte	0x18d
 999 01a8 05       		.uleb128 0x5
 1000 01a9 03       		.byte	0x3
 1001 01aa 00000000 		.4byte	recent_samps_in
 1002 01ae 0A       		.uleb128 0xa
 1003 01af 00000000 		.4byte	.LASF19
 1004 01b3 01       		.byte	0x1
 1005 01b4 1B       		.byte	0x1b
 1006 01b5 8D010000 		.4byte	0x18d
 1007 01b9 05       		.uleb128 0x5
 1008 01ba 03       		.byte	0x3
 1009 01bb 40000000 		.4byte	recent_samps_v
 1010 01bf 0A       		.uleb128 0xa
 1011 01c0 12020000 		.4byte	.LASF20
 1012 01c4 01       		.byte	0x1
 1013 01c5 1C       		.byte	0x1c
 1014 01c6 8D010000 		.4byte	0x18d
 1015 01ca 05       		.uleb128 0x5
 1016 01cb 03       		.byte	0x3
 1017 01cc 80000000 		.4byte	recent_samps_e
 1018 01d0 0A       		.uleb128 0xa
 1019 01d1 2D010000 		.4byte	.LASF21
 1020 01d5 01       		.byte	0x1
 1021 01d6 1D       		.byte	0x1d
 1022 01d7 8D010000 		.4byte	0x18d
 1023 01db 05       		.uleb128 0x5
 1024 01dc 03       		.byte	0x3
 1025 01dd C0000000 		.4byte	model_coeffs
 1026 01e1 0A       		.uleb128 0xa
 1027 01e2 41010000 		.4byte	.LASF22
 1028 01e6 01       		.byte	0x1
 1029 01e7 1F       		.byte	0x1f
 1030 01e8 2C000000 		.4byte	0x2c
 1031 01ec 05       		.uleb128 0x5
 1032 01ed 03       		.byte	0x3
 1033 01ee 00010000 		.4byte	wptr
 1034 01f2 00       		.byte	0
 1035              		.section	.debug_abbrev,"",%progbits
 1036              	.Ldebug_abbrev0:
 1037 0000 01       		.uleb128 0x1
 1038 0001 11       		.uleb128 0x11
ARM GAS  C:\Users\pearlstl\AppData\Local\Temp\ccUrdpib.s 			page 23


 1039 0002 01       		.byte	0x1
 1040 0003 25       		.uleb128 0x25
 1041 0004 0E       		.uleb128 0xe
 1042 0005 13       		.uleb128 0x13
 1043 0006 0B       		.uleb128 0xb
 1044 0007 03       		.uleb128 0x3
 1045 0008 0E       		.uleb128 0xe
 1046 0009 1B       		.uleb128 0x1b
 1047 000a 0E       		.uleb128 0xe
 1048 000b 55       		.uleb128 0x55
 1049 000c 17       		.uleb128 0x17
 1050 000d 11       		.uleb128 0x11
 1051 000e 01       		.uleb128 0x1
 1052 000f 10       		.uleb128 0x10
 1053 0010 17       		.uleb128 0x17
 1054 0011 00       		.byte	0
 1055 0012 00       		.byte	0
 1056 0013 02       		.uleb128 0x2
 1057 0014 24       		.uleb128 0x24
 1058 0015 00       		.byte	0
 1059 0016 0B       		.uleb128 0xb
 1060 0017 0B       		.uleb128 0xb
 1061 0018 3E       		.uleb128 0x3e
 1062 0019 0B       		.uleb128 0xb
 1063 001a 03       		.uleb128 0x3
 1064 001b 0E       		.uleb128 0xe
 1065 001c 00       		.byte	0
 1066 001d 00       		.byte	0
 1067 001e 03       		.uleb128 0x3
 1068 001f 24       		.uleb128 0x24
 1069 0020 00       		.byte	0
 1070 0021 0B       		.uleb128 0xb
 1071 0022 0B       		.uleb128 0xb
 1072 0023 3E       		.uleb128 0x3e
 1073 0024 0B       		.uleb128 0xb
 1074 0025 03       		.uleb128 0x3
 1075 0026 08       		.uleb128 0x8
 1076 0027 00       		.byte	0
 1077 0028 00       		.byte	0
 1078 0029 04       		.uleb128 0x4
 1079 002a 16       		.uleb128 0x16
 1080 002b 00       		.byte	0
 1081 002c 03       		.uleb128 0x3
 1082 002d 0E       		.uleb128 0xe
 1083 002e 3A       		.uleb128 0x3a
 1084 002f 0B       		.uleb128 0xb
 1085 0030 3B       		.uleb128 0x3b
 1086 0031 0B       		.uleb128 0xb
 1087 0032 49       		.uleb128 0x49
 1088 0033 13       		.uleb128 0x13
 1089 0034 00       		.byte	0
 1090 0035 00       		.byte	0
 1091 0036 05       		.uleb128 0x5
 1092 0037 2E       		.uleb128 0x2e
 1093 0038 01       		.byte	0x1
 1094 0039 3F       		.uleb128 0x3f
 1095 003a 19       		.uleb128 0x19
ARM GAS  C:\Users\pearlstl\AppData\Local\Temp\ccUrdpib.s 			page 24


 1096 003b 03       		.uleb128 0x3
 1097 003c 0E       		.uleb128 0xe
 1098 003d 3A       		.uleb128 0x3a
 1099 003e 0B       		.uleb128 0xb
 1100 003f 3B       		.uleb128 0x3b
 1101 0040 0B       		.uleb128 0xb
 1102 0041 27       		.uleb128 0x27
 1103 0042 19       		.uleb128 0x19
 1104 0043 11       		.uleb128 0x11
 1105 0044 01       		.uleb128 0x1
 1106 0045 12       		.uleb128 0x12
 1107 0046 06       		.uleb128 0x6
 1108 0047 40       		.uleb128 0x40
 1109 0048 18       		.uleb128 0x18
 1110 0049 9742     		.uleb128 0x2117
 1111 004b 19       		.uleb128 0x19
 1112 004c 01       		.uleb128 0x1
 1113 004d 13       		.uleb128 0x13
 1114 004e 00       		.byte	0
 1115 004f 00       		.byte	0
 1116 0050 06       		.uleb128 0x6
 1117 0051 34       		.uleb128 0x34
 1118 0052 00       		.byte	0
 1119 0053 03       		.uleb128 0x3
 1120 0054 08       		.uleb128 0x8
 1121 0055 3A       		.uleb128 0x3a
 1122 0056 0B       		.uleb128 0xb
 1123 0057 3B       		.uleb128 0x3b
 1124 0058 0B       		.uleb128 0xb
 1125 0059 49       		.uleb128 0x49
 1126 005a 13       		.uleb128 0x13
 1127 005b 02       		.uleb128 0x2
 1128 005c 18       		.uleb128 0x18
 1129 005d 00       		.byte	0
 1130 005e 00       		.byte	0
 1131 005f 07       		.uleb128 0x7
 1132 0060 2E       		.uleb128 0x2e
 1133 0061 01       		.byte	0x1
 1134 0062 3F       		.uleb128 0x3f
 1135 0063 19       		.uleb128 0x19
 1136 0064 03       		.uleb128 0x3
 1137 0065 0E       		.uleb128 0xe
 1138 0066 3A       		.uleb128 0x3a
 1139 0067 0B       		.uleb128 0xb
 1140 0068 3B       		.uleb128 0x3b
 1141 0069 0B       		.uleb128 0xb
 1142 006a 27       		.uleb128 0x27
 1143 006b 19       		.uleb128 0x19
 1144 006c 49       		.uleb128 0x49
 1145 006d 13       		.uleb128 0x13
 1146 006e 11       		.uleb128 0x11
 1147 006f 01       		.uleb128 0x1
 1148 0070 12       		.uleb128 0x12
 1149 0071 06       		.uleb128 0x6
 1150 0072 40       		.uleb128 0x40
 1151 0073 18       		.uleb128 0x18
 1152 0074 9642     		.uleb128 0x2116
ARM GAS  C:\Users\pearlstl\AppData\Local\Temp\ccUrdpib.s 			page 25


 1153 0076 19       		.uleb128 0x19
 1154 0077 01       		.uleb128 0x1
 1155 0078 13       		.uleb128 0x13
 1156 0079 00       		.byte	0
 1157 007a 00       		.byte	0
 1158 007b 08       		.uleb128 0x8
 1159 007c 05       		.uleb128 0x5
 1160 007d 00       		.byte	0
 1161 007e 03       		.uleb128 0x3
 1162 007f 0E       		.uleb128 0xe
 1163 0080 3A       		.uleb128 0x3a
 1164 0081 0B       		.uleb128 0xb
 1165 0082 3B       		.uleb128 0x3b
 1166 0083 0B       		.uleb128 0xb
 1167 0084 49       		.uleb128 0x49
 1168 0085 13       		.uleb128 0x13
 1169 0086 02       		.uleb128 0x2
 1170 0087 18       		.uleb128 0x18
 1171 0088 00       		.byte	0
 1172 0089 00       		.byte	0
 1173 008a 09       		.uleb128 0x9
 1174 008b 0B       		.uleb128 0xb
 1175 008c 01       		.byte	0x1
 1176 008d 11       		.uleb128 0x11
 1177 008e 01       		.uleb128 0x1
 1178 008f 12       		.uleb128 0x12
 1179 0090 06       		.uleb128 0x6
 1180 0091 00       		.byte	0
 1181 0092 00       		.byte	0
 1182 0093 0A       		.uleb128 0xa
 1183 0094 34       		.uleb128 0x34
 1184 0095 00       		.byte	0
 1185 0096 03       		.uleb128 0x3
 1186 0097 0E       		.uleb128 0xe
 1187 0098 3A       		.uleb128 0x3a
 1188 0099 0B       		.uleb128 0xb
 1189 009a 3B       		.uleb128 0x3b
 1190 009b 0B       		.uleb128 0xb
 1191 009c 49       		.uleb128 0x49
 1192 009d 13       		.uleb128 0x13
 1193 009e 02       		.uleb128 0x2
 1194 009f 18       		.uleb128 0x18
 1195 00a0 00       		.byte	0
 1196 00a1 00       		.byte	0
 1197 00a2 0B       		.uleb128 0xb
 1198 00a3 01       		.uleb128 0x1
 1199 00a4 01       		.byte	0x1
 1200 00a5 49       		.uleb128 0x49
 1201 00a6 13       		.uleb128 0x13
 1202 00a7 01       		.uleb128 0x1
 1203 00a8 13       		.uleb128 0x13
 1204 00a9 00       		.byte	0
 1205 00aa 00       		.byte	0
 1206 00ab 0C       		.uleb128 0xc
 1207 00ac 21       		.uleb128 0x21
 1208 00ad 00       		.byte	0
 1209 00ae 49       		.uleb128 0x49
ARM GAS  C:\Users\pearlstl\AppData\Local\Temp\ccUrdpib.s 			page 26


 1210 00af 13       		.uleb128 0x13
 1211 00b0 2F       		.uleb128 0x2f
 1212 00b1 0B       		.uleb128 0xb
 1213 00b2 00       		.byte	0
 1214 00b3 00       		.byte	0
 1215 00b4 0D       		.uleb128 0xd
 1216 00b5 05       		.uleb128 0x5
 1217 00b6 00       		.byte	0
 1218 00b7 03       		.uleb128 0x3
 1219 00b8 08       		.uleb128 0x8
 1220 00b9 3A       		.uleb128 0x3a
 1221 00ba 0B       		.uleb128 0xb
 1222 00bb 3B       		.uleb128 0x3b
 1223 00bc 0B       		.uleb128 0xb
 1224 00bd 49       		.uleb128 0x49
 1225 00be 13       		.uleb128 0x13
 1226 00bf 02       		.uleb128 0x2
 1227 00c0 18       		.uleb128 0x18
 1228 00c1 00       		.byte	0
 1229 00c2 00       		.byte	0
 1230 00c3 00       		.byte	0
 1231              		.section	.debug_aranges,"",%progbits
 1232 0000 2C000000 		.4byte	0x2c
 1233 0004 0200     		.2byte	0x2
 1234 0006 00000000 		.4byte	.Ldebug_info0
 1235 000a 04       		.byte	0x4
 1236 000b 00       		.byte	0
 1237 000c 0000     		.2byte	0
 1238 000e 0000     		.2byte	0
 1239 0010 00000000 		.4byte	.LFB0
 1240 0014 6C000000 		.4byte	.LFE0-.LFB0
 1241 0018 00000000 		.4byte	.LFB1
 1242 001c 14050000 		.4byte	.LFE1-.LFB1
 1243 0020 00000000 		.4byte	.LFB2
 1244 0024 8C000000 		.4byte	.LFE2-.LFB2
 1245 0028 00000000 		.4byte	0
 1246 002c 00000000 		.4byte	0
 1247              		.section	.debug_ranges,"",%progbits
 1248              	.Ldebug_ranges0:
 1249 0000 00000000 		.4byte	.LFB0
 1250 0004 6C000000 		.4byte	.LFE0
 1251 0008 00000000 		.4byte	.LFB1
 1252 000c 14050000 		.4byte	.LFE1
 1253 0010 00000000 		.4byte	.LFB2
 1254 0014 8C000000 		.4byte	.LFE2
 1255 0018 00000000 		.4byte	0
 1256 001c 00000000 		.4byte	0
 1257              		.section	.debug_line,"",%progbits
 1258              	.Ldebug_line0:
 1259 0000 55010000 		.section	.debug_str,"MS",%progbits,1
 1259      02004800 
 1259      00000201 
 1259      FB0E0D00 
 1259      01010101 
 1260              	.LASF19:
 1261 0000 72656365 		.ascii	"recent_samps_v\000"
 1261      6E745F73 
ARM GAS  C:\Users\pearlstl\AppData\Local\Temp\ccUrdpib.s 			page 27


 1261      616D7073 
 1261      5F7600
 1262              	.LASF4:
 1263 000f 73686F72 		.ascii	"short unsigned int\000"
 1263      7420756E 
 1263      7369676E 
 1263      65642069 
 1263      6E7400
 1264              	.LASF11:
 1265 0022 666C6F61 		.ascii	"float\000"
 1265      7400
 1266              	.LASF25:
 1267 0028 433A5C55 		.ascii	"C:\\Users\\pearlstl\\Documents\\MUSE-Research\\proj"
 1267      73657273 
 1267      5C706561 
 1267      726C7374 
 1267      6C5C446F 
 1268 0056 5F616E63 		.ascii	"_anc\\system\\WaveGenerator1\\WaveGenerator1.cydsn\000"
 1268      5C737973 
 1268      74656D5C 
 1268      57617665 
 1268      47656E65 
 1269              	.LASF2:
 1270 0086 756E7369 		.ascii	"unsigned char\000"
 1270      676E6564 
 1270      20636861 
 1270      7200
 1271              	.LASF23:
 1272 0094 474E5520 		.ascii	"GNU C 4.8.4 20140526 (release) [ARM/embedded-4_8-br"
 1272      4320342E 
 1272      382E3420 
 1272      32303134 
 1272      30353236 
 1273 00c7 616E6368 		.ascii	"anch revision 211358] -mcpu=cortex-m3 -mthumb -g -O"
 1273      20726576 
 1273      6973696F 
 1273      6E203231 
 1273      31333538 
 1274 00fa 30202D66 		.ascii	"0 -ffunction-sections\000"
 1274      66756E63 
 1274      74696F6E 
 1274      2D736563 
 1274      74696F6E 
 1275              	.LASF6:
 1276 0110 6C6F6E67 		.ascii	"long unsigned int\000"
 1276      20756E73 
 1276      69676E65 
 1276      6420696E 
 1276      7400
 1277              	.LASF17:
 1278 0122 74656D70 		.ascii	"temp\000"
 1278      00
 1279              	.LASF26:
 1280 0127 75696E74 		.ascii	"uint8\000"
 1280      3800
 1281              	.LASF21:
 1282 012d 6D6F6465 		.ascii	"model_coeffs\000"
ARM GAS  C:\Users\pearlstl\AppData\Local\Temp\ccUrdpib.s 			page 28


 1282      6C5F636F 
 1282      65666673 
 1282      00
 1283              	.LASF12:
 1284 013a 646F7562 		.ascii	"double\000"
 1284      6C6500
 1285              	.LASF22:
 1286 0141 77707472 		.ascii	"wptr\000"
 1286      00
 1287              	.LASF0:
 1288 0146 756E7369 		.ascii	"unsigned int\000"
 1288      676E6564 
 1288      20696E74 
 1288      00
 1289              	.LASF13:
 1290 0153 6D795F73 		.ascii	"my_string\000"
 1290      7472696E 
 1290      6700
 1291              	.LASF8:
 1292 015d 6C6F6E67 		.ascii	"long long unsigned int\000"
 1292      206C6F6E 
 1292      6720756E 
 1292      7369676E 
 1292      65642069 
 1293              	.LASF14:
 1294 0174 63616E63 		.ascii	"canceller_new\000"
 1294      656C6C65 
 1294      725F6E65 
 1294      7700
 1295              	.LASF9:
 1296 0182 73697A65 		.ascii	"sizetype\000"
 1296      74797065 
 1296      00
 1297              	.LASF7:
 1298 018b 6C6F6E67 		.ascii	"long long int\000"
 1298      206C6F6E 
 1298      6720696E 
 1298      7400
 1299              	.LASF24:
 1300 0199 2E5C6361 		.ascii	".\\canceller.c\000"
 1300      6E63656C 
 1300      6C65722E 
 1300      6300
 1301              	.LASF15:
 1302 01a7 63616E63 		.ascii	"canceller_coeff_update\000"
 1302      656C6C65 
 1302      725F636F 
 1302      6566665F 
 1302      75706461 
 1303              	.LASF3:
 1304 01be 73686F72 		.ascii	"short int\000"
 1304      7420696E 
 1304      7400
 1305              	.LASF27:
 1306 01c8 63616E63 		.ascii	"canceller_new_sample\000"
 1306      656C6C65 
 1306      725F6E65 
ARM GAS  C:\Users\pearlstl\AppData\Local\Temp\ccUrdpib.s 			page 29


 1306      775F7361 
 1306      6D706C65 
 1307              	.LASF5:
 1308 01dd 6C6F6E67 		.ascii	"long int\000"
 1308      20696E74 
 1308      00
 1309              	.LASF10:
 1310 01e6 63686172 		.ascii	"char\000"
 1310      00
 1311              	.LASF16:
 1312 01eb 696E7075 		.ascii	"input_samp\000"
 1312      745F7361 
 1312      6D7000
 1313              	.LASF1:
 1314 01f6 7369676E 		.ascii	"signed char\000"
 1314      65642063 
 1314      68617200 
 1315              	.LASF18:
 1316 0202 72656365 		.ascii	"recent_samps_in\000"
 1316      6E745F73 
 1316      616D7073 
 1316      5F696E00 
 1317              	.LASF20:
 1318 0212 72656365 		.ascii	"recent_samps_e\000"
 1318      6E745F73 
 1318      616D7073 
 1318      5F6500
 1319              		.ident	"GCC: (GNU Tools for ARM Embedded Processors) 4.8.4 20140526 (release) [ARM/embedded-4_8-br
