ARM GAS  C:\Users\shubhamt\AppData\Local\Temp\ccrM77Qe.s 			page 1


   1              		.syntax unified
   2              		.cpu cortex-m3
   3              		.fpu softvfp
   4              		.eabi_attribute 20, 1
   5              		.eabi_attribute 21, 1
   6              		.eabi_attribute 23, 3
   7              		.eabi_attribute 24, 1
   8              		.eabi_attribute 25, 1
   9              		.eabi_attribute 26, 1
  10              		.eabi_attribute 30, 6
  11              		.eabi_attribute 34, 1
  12              		.eabi_attribute 18, 4
  13              		.thumb
  14              		.file	"isr.c"
  15              		.text
  16              	.Ltext0:
  17              		.cfi_sections	.debug_frame
  18              		.comm	cap_array,30000,4
  19              		.section	.text.isr_Start,"ax",%progbits
  20              		.align	2
  21              		.global	isr_Start
  22              		.thumb
  23              		.thumb_func
  24              		.type	isr_Start, %function
  25              	isr_Start:
  26              	.LFB56:
  27              		.file 1 ".\\Generated_Source\\PSoC5\\isr.c"
   1:.\Generated_Source\PSoC5/isr.c **** /*******************************************************************************
   2:.\Generated_Source\PSoC5/isr.c **** * File Name: isr.c  
   3:.\Generated_Source\PSoC5/isr.c **** * Version 1.70
   4:.\Generated_Source\PSoC5/isr.c **** *
   5:.\Generated_Source\PSoC5/isr.c **** *  Description:
   6:.\Generated_Source\PSoC5/isr.c **** *   API for controlling the state of an interrupt.
   7:.\Generated_Source\PSoC5/isr.c **** *
   8:.\Generated_Source\PSoC5/isr.c **** *
   9:.\Generated_Source\PSoC5/isr.c **** *  Note:
  10:.\Generated_Source\PSoC5/isr.c **** *
  11:.\Generated_Source\PSoC5/isr.c **** ********************************************************************************
  12:.\Generated_Source\PSoC5/isr.c **** * Copyright 2008-2015, Cypress Semiconductor Corporation.  All rights reserved.
  13:.\Generated_Source\PSoC5/isr.c **** * You may use this file only in accordance with the license, terms, conditions, 
  14:.\Generated_Source\PSoC5/isr.c **** * disclaimers, and limitations in the end user license agreement accompanying 
  15:.\Generated_Source\PSoC5/isr.c **** * the software package with which this file was provided.
  16:.\Generated_Source\PSoC5/isr.c **** *******************************************************************************/
  17:.\Generated_Source\PSoC5/isr.c **** 
  18:.\Generated_Source\PSoC5/isr.c **** 
  19:.\Generated_Source\PSoC5/isr.c **** #include <cydevice_trm.h>
  20:.\Generated_Source\PSoC5/isr.c **** #include <CyLib.h>
  21:.\Generated_Source\PSoC5/isr.c **** #include <isr.h>
  22:.\Generated_Source\PSoC5/isr.c **** 
  23:.\Generated_Source\PSoC5/isr.c **** #if !defined(isr__REMOVED) /* Check for removal by optimization */
  24:.\Generated_Source\PSoC5/isr.c **** 
  25:.\Generated_Source\PSoC5/isr.c **** /*******************************************************************************
  26:.\Generated_Source\PSoC5/isr.c **** *  Place your includes, defines and code here 
  27:.\Generated_Source\PSoC5/isr.c **** ********************************************************************************/
  28:.\Generated_Source\PSoC5/isr.c **** /* `#START isr_intc` */
  29:.\Generated_Source\PSoC5/isr.c **** #include <project.h>
  30:.\Generated_Source\PSoC5/isr.c **** #include "canceller.h"
ARM GAS  C:\Users\shubhamt\AppData\Local\Temp\ccrM77Qe.s 			page 2


  31:.\Generated_Source\PSoC5/isr.c **** #include "ANC.h"
  32:.\Generated_Source\PSoC5/isr.c **** #include <stdlib.h>
  33:.\Generated_Source\PSoC5/isr.c **** #include <stdio.h>
  34:.\Generated_Source\PSoC5/isr.c **** #include <string.h>
  35:.\Generated_Source\PSoC5/isr.c ****     
  36:.\Generated_Source\PSoC5/isr.c **** uint8 cap_array[NUM_SAMPS_TO_CAPTURE];
  37:.\Generated_Source\PSoC5/isr.c **** extern int n;
  38:.\Generated_Source\PSoC5/isr.c **** extern int wave_table[WAVESIZE];
  39:.\Generated_Source\PSoC5/isr.c **** /* `#END` */
  40:.\Generated_Source\PSoC5/isr.c **** 
  41:.\Generated_Source\PSoC5/isr.c **** #ifndef CYINT_IRQ_BASE
  42:.\Generated_Source\PSoC5/isr.c **** #define CYINT_IRQ_BASE      16
  43:.\Generated_Source\PSoC5/isr.c **** #endif /* CYINT_IRQ_BASE */
  44:.\Generated_Source\PSoC5/isr.c **** #ifndef CYINT_VECT_TABLE
  45:.\Generated_Source\PSoC5/isr.c **** #define CYINT_VECT_TABLE    ((cyisraddress **) CYREG_NVIC_VECT_OFFSET)
  46:.\Generated_Source\PSoC5/isr.c **** #endif /* CYINT_VECT_TABLE */
  47:.\Generated_Source\PSoC5/isr.c **** 
  48:.\Generated_Source\PSoC5/isr.c **** /* Declared in startup, used to set unused interrupts to. */
  49:.\Generated_Source\PSoC5/isr.c **** CY_ISR_PROTO(IntDefaultHandler);
  50:.\Generated_Source\PSoC5/isr.c **** 
  51:.\Generated_Source\PSoC5/isr.c **** 
  52:.\Generated_Source\PSoC5/isr.c **** /*******************************************************************************
  53:.\Generated_Source\PSoC5/isr.c **** * Function Name: isr_Start
  54:.\Generated_Source\PSoC5/isr.c **** ********************************************************************************
  55:.\Generated_Source\PSoC5/isr.c **** *
  56:.\Generated_Source\PSoC5/isr.c **** * Summary:
  57:.\Generated_Source\PSoC5/isr.c **** *  Set up the interrupt and enable it. This function disables the interrupt, 
  58:.\Generated_Source\PSoC5/isr.c **** *  sets the default interrupt vector, sets the priority from the value in the
  59:.\Generated_Source\PSoC5/isr.c **** *  Design Wide Resources Interrupt Editor, then enables the interrupt to the 
  60:.\Generated_Source\PSoC5/isr.c **** *  interrupt controller.
  61:.\Generated_Source\PSoC5/isr.c **** *
  62:.\Generated_Source\PSoC5/isr.c **** * Parameters:  
  63:.\Generated_Source\PSoC5/isr.c **** *   None
  64:.\Generated_Source\PSoC5/isr.c **** *
  65:.\Generated_Source\PSoC5/isr.c **** * Return:
  66:.\Generated_Source\PSoC5/isr.c **** *   None
  67:.\Generated_Source\PSoC5/isr.c **** *
  68:.\Generated_Source\PSoC5/isr.c **** *******************************************************************************/
  69:.\Generated_Source\PSoC5/isr.c **** void isr_Start(void)
  70:.\Generated_Source\PSoC5/isr.c **** {
  28              		.loc 1 70 0
  29              		.cfi_startproc
  30              		@ args = 0, pretend = 0, frame = 0
  31              		@ frame_needed = 1, uses_anonymous_args = 0
  32 0000 80B5     		push	{r7, lr}
  33              		.cfi_def_cfa_offset 8
  34              		.cfi_offset 7, -8
  35              		.cfi_offset 14, -4
  36 0002 00AF     		add	r7, sp, #0
  37              		.cfi_def_cfa_register 7
  71:.\Generated_Source\PSoC5/isr.c ****     /* For all we know the interrupt is active. */
  72:.\Generated_Source\PSoC5/isr.c ****     isr_Disable();
  38              		.loc 1 72 0
  39 0004 FFF7FEFF 		bl	isr_Disable
  73:.\Generated_Source\PSoC5/isr.c **** 
  74:.\Generated_Source\PSoC5/isr.c ****     /* Set the ISR to point to the isr Interrupt. */
  75:.\Generated_Source\PSoC5/isr.c ****     isr_SetVector(&isr_Interrupt);
ARM GAS  C:\Users\shubhamt\AppData\Local\Temp\ccrM77Qe.s 			page 3


  40              		.loc 1 75 0
  41 0008 0448     		ldr	r0, .L2
  42 000a FFF7FEFF 		bl	isr_SetVector
  76:.\Generated_Source\PSoC5/isr.c **** 
  77:.\Generated_Source\PSoC5/isr.c ****     /* Set the priority. */
  78:.\Generated_Source\PSoC5/isr.c ****     isr_SetPriority((uint8)isr_INTC_PRIOR_NUMBER);
  43              		.loc 1 78 0
  44 000e 0720     		movs	r0, #7
  45 0010 FFF7FEFF 		bl	isr_SetPriority
  79:.\Generated_Source\PSoC5/isr.c **** 
  80:.\Generated_Source\PSoC5/isr.c ****     /* Enable it. */
  81:.\Generated_Source\PSoC5/isr.c ****     isr_Enable();
  46              		.loc 1 81 0
  47 0014 FFF7FEFF 		bl	isr_Enable
  82:.\Generated_Source\PSoC5/isr.c **** }
  48              		.loc 1 82 0
  49 0018 80BD     		pop	{r7, pc}
  50              	.L3:
  51 001a 00BF     		.align	2
  52              	.L2:
  53 001c 00000000 		.word	isr_Interrupt
  54              		.cfi_endproc
  55              	.LFE56:
  56              		.size	isr_Start, .-isr_Start
  57              		.section	.text.isr_StartEx,"ax",%progbits
  58              		.align	2
  59              		.global	isr_StartEx
  60              		.thumb
  61              		.thumb_func
  62              		.type	isr_StartEx, %function
  63              	isr_StartEx:
  64              	.LFB57:
  83:.\Generated_Source\PSoC5/isr.c **** 
  84:.\Generated_Source\PSoC5/isr.c **** 
  85:.\Generated_Source\PSoC5/isr.c **** /*******************************************************************************
  86:.\Generated_Source\PSoC5/isr.c **** * Function Name: isr_StartEx
  87:.\Generated_Source\PSoC5/isr.c **** ********************************************************************************
  88:.\Generated_Source\PSoC5/isr.c **** *
  89:.\Generated_Source\PSoC5/isr.c **** * Summary:
  90:.\Generated_Source\PSoC5/isr.c **** *  Sets up the interrupt and enables it. This function disables the interrupt,
  91:.\Generated_Source\PSoC5/isr.c **** *  sets the interrupt vector based on the address passed in, sets the priority 
  92:.\Generated_Source\PSoC5/isr.c **** *  from the value in the Design Wide Resources Interrupt Editor, then enables 
  93:.\Generated_Source\PSoC5/isr.c **** *  the interrupt to the interrupt controller.
  94:.\Generated_Source\PSoC5/isr.c **** *  
  95:.\Generated_Source\PSoC5/isr.c **** *  When defining ISR functions, the CY_ISR and CY_ISR_PROTO macros should be 
  96:.\Generated_Source\PSoC5/isr.c **** *  used to provide consistent definition across compilers:
  97:.\Generated_Source\PSoC5/isr.c **** *  
  98:.\Generated_Source\PSoC5/isr.c **** *  Function definition example:
  99:.\Generated_Source\PSoC5/isr.c **** *   CY_ISR(MyISR)
 100:.\Generated_Source\PSoC5/isr.c **** *   {
 101:.\Generated_Source\PSoC5/isr.c **** *   }
 102:.\Generated_Source\PSoC5/isr.c **** *   Function prototype example:
 103:.\Generated_Source\PSoC5/isr.c **** *   CY_ISR_PROTO(MyISR);
 104:.\Generated_Source\PSoC5/isr.c **** *
 105:.\Generated_Source\PSoC5/isr.c **** * Parameters:  
 106:.\Generated_Source\PSoC5/isr.c **** *   address: Address of the ISR to set in the interrupt vector table.
 107:.\Generated_Source\PSoC5/isr.c **** *
ARM GAS  C:\Users\shubhamt\AppData\Local\Temp\ccrM77Qe.s 			page 4


 108:.\Generated_Source\PSoC5/isr.c **** * Return:
 109:.\Generated_Source\PSoC5/isr.c **** *   None
 110:.\Generated_Source\PSoC5/isr.c **** *
 111:.\Generated_Source\PSoC5/isr.c **** *******************************************************************************/
 112:.\Generated_Source\PSoC5/isr.c **** void isr_StartEx(cyisraddress address)
 113:.\Generated_Source\PSoC5/isr.c **** {
  65              		.loc 1 113 0
  66              		.cfi_startproc
  67              		@ args = 0, pretend = 0, frame = 8
  68              		@ frame_needed = 1, uses_anonymous_args = 0
  69 0000 80B5     		push	{r7, lr}
  70              		.cfi_def_cfa_offset 8
  71              		.cfi_offset 7, -8
  72              		.cfi_offset 14, -4
  73 0002 82B0     		sub	sp, sp, #8
  74              		.cfi_def_cfa_offset 16
  75 0004 00AF     		add	r7, sp, #0
  76              		.cfi_def_cfa_register 7
  77 0006 7860     		str	r0, [r7, #4]
 114:.\Generated_Source\PSoC5/isr.c ****     /* For all we know the interrupt is active. */
 115:.\Generated_Source\PSoC5/isr.c ****     isr_Disable();
  78              		.loc 1 115 0
  79 0008 FFF7FEFF 		bl	isr_Disable
 116:.\Generated_Source\PSoC5/isr.c **** 
 117:.\Generated_Source\PSoC5/isr.c ****     /* Set the ISR to point to the isr Interrupt. */
 118:.\Generated_Source\PSoC5/isr.c ****     isr_SetVector(address);
  80              		.loc 1 118 0
  81 000c 7868     		ldr	r0, [r7, #4]
  82 000e FFF7FEFF 		bl	isr_SetVector
 119:.\Generated_Source\PSoC5/isr.c **** 
 120:.\Generated_Source\PSoC5/isr.c ****     /* Set the priority. */
 121:.\Generated_Source\PSoC5/isr.c ****     isr_SetPriority((uint8)isr_INTC_PRIOR_NUMBER);
  83              		.loc 1 121 0
  84 0012 0720     		movs	r0, #7
  85 0014 FFF7FEFF 		bl	isr_SetPriority
 122:.\Generated_Source\PSoC5/isr.c **** 
 123:.\Generated_Source\PSoC5/isr.c ****     /* Enable it. */
 124:.\Generated_Source\PSoC5/isr.c ****     isr_Enable();
  86              		.loc 1 124 0
  87 0018 FFF7FEFF 		bl	isr_Enable
 125:.\Generated_Source\PSoC5/isr.c **** }
  88              		.loc 1 125 0
  89 001c 0837     		adds	r7, r7, #8
  90 001e BD46     		mov	sp, r7
  91              		@ sp needed
  92 0020 80BD     		pop	{r7, pc}
  93              		.cfi_endproc
  94              	.LFE57:
  95              		.size	isr_StartEx, .-isr_StartEx
  96 0022 00BF     		.section	.text.isr_Stop,"ax",%progbits
  97              		.align	2
  98              		.global	isr_Stop
  99              		.thumb
 100              		.thumb_func
 101              		.type	isr_Stop, %function
 102              	isr_Stop:
 103              	.LFB58:
ARM GAS  C:\Users\shubhamt\AppData\Local\Temp\ccrM77Qe.s 			page 5


 126:.\Generated_Source\PSoC5/isr.c **** 
 127:.\Generated_Source\PSoC5/isr.c **** 
 128:.\Generated_Source\PSoC5/isr.c **** /*******************************************************************************
 129:.\Generated_Source\PSoC5/isr.c **** * Function Name: isr_Stop
 130:.\Generated_Source\PSoC5/isr.c **** ********************************************************************************
 131:.\Generated_Source\PSoC5/isr.c **** *
 132:.\Generated_Source\PSoC5/isr.c **** * Summary:
 133:.\Generated_Source\PSoC5/isr.c **** *   Disables and removes the interrupt.
 134:.\Generated_Source\PSoC5/isr.c **** *
 135:.\Generated_Source\PSoC5/isr.c **** * Parameters:  
 136:.\Generated_Source\PSoC5/isr.c **** *   None
 137:.\Generated_Source\PSoC5/isr.c **** *
 138:.\Generated_Source\PSoC5/isr.c **** * Return:
 139:.\Generated_Source\PSoC5/isr.c **** *   None
 140:.\Generated_Source\PSoC5/isr.c **** *
 141:.\Generated_Source\PSoC5/isr.c **** *******************************************************************************/
 142:.\Generated_Source\PSoC5/isr.c **** void isr_Stop(void)
 143:.\Generated_Source\PSoC5/isr.c **** {
 104              		.loc 1 143 0
 105              		.cfi_startproc
 106              		@ args = 0, pretend = 0, frame = 0
 107              		@ frame_needed = 1, uses_anonymous_args = 0
 108 0000 80B5     		push	{r7, lr}
 109              		.cfi_def_cfa_offset 8
 110              		.cfi_offset 7, -8
 111              		.cfi_offset 14, -4
 112 0002 00AF     		add	r7, sp, #0
 113              		.cfi_def_cfa_register 7
 144:.\Generated_Source\PSoC5/isr.c ****     /* Disable this interrupt. */
 145:.\Generated_Source\PSoC5/isr.c ****     isr_Disable();
 114              		.loc 1 145 0
 115 0004 FFF7FEFF 		bl	isr_Disable
 146:.\Generated_Source\PSoC5/isr.c **** 
 147:.\Generated_Source\PSoC5/isr.c ****     /* Set the ISR to point to the passive one. */
 148:.\Generated_Source\PSoC5/isr.c ****     isr_SetVector(&IntDefaultHandler);
 116              		.loc 1 148 0
 117 0008 0148     		ldr	r0, .L6
 118 000a FFF7FEFF 		bl	isr_SetVector
 149:.\Generated_Source\PSoC5/isr.c **** }
 119              		.loc 1 149 0
 120 000e 80BD     		pop	{r7, pc}
 121              	.L7:
 122              		.align	2
 123              	.L6:
 124 0010 00000000 		.word	IntDefaultHandler
 125              		.cfi_endproc
 126              	.LFE58:
 127              		.size	isr_Stop, .-isr_Stop
 128              		.section	.rodata
 129              		.align	2
 130              	.LC0:
 131 0000 25640A00 		.ascii	"%d\012\000"
 132              		.section	.text.isr_Interrupt,"ax",%progbits
 133              		.align	2
 134              		.global	isr_Interrupt
 135              		.thumb
 136              		.thumb_func
ARM GAS  C:\Users\shubhamt\AppData\Local\Temp\ccrM77Qe.s 			page 6


 137              		.type	isr_Interrupt, %function
 138              	isr_Interrupt:
 139              	.LFB59:
 150:.\Generated_Source\PSoC5/isr.c **** 
 151:.\Generated_Source\PSoC5/isr.c **** 
 152:.\Generated_Source\PSoC5/isr.c **** /*******************************************************************************
 153:.\Generated_Source\PSoC5/isr.c **** * Function Name: isr_Interrupt
 154:.\Generated_Source\PSoC5/isr.c **** ********************************************************************************
 155:.\Generated_Source\PSoC5/isr.c **** *
 156:.\Generated_Source\PSoC5/isr.c **** * Summary:
 157:.\Generated_Source\PSoC5/isr.c **** *   The default Interrupt Service Routine for isr.
 158:.\Generated_Source\PSoC5/isr.c **** *
 159:.\Generated_Source\PSoC5/isr.c **** *   Add custom code between the coments to keep the next version of this file
 160:.\Generated_Source\PSoC5/isr.c **** *   from over writting your code.
 161:.\Generated_Source\PSoC5/isr.c **** *
 162:.\Generated_Source\PSoC5/isr.c **** * Parameters:  
 163:.\Generated_Source\PSoC5/isr.c **** *
 164:.\Generated_Source\PSoC5/isr.c **** * Return:
 165:.\Generated_Source\PSoC5/isr.c **** *   None
 166:.\Generated_Source\PSoC5/isr.c **** *
 167:.\Generated_Source\PSoC5/isr.c **** *******************************************************************************/
 168:.\Generated_Source\PSoC5/isr.c **** CY_ISR(isr_Interrupt)
 169:.\Generated_Source\PSoC5/isr.c **** {
 140              		.loc 1 169 0
 141              		.cfi_startproc
 142              		@ args = 0, pretend = 0, frame = 56
 143              		@ frame_needed = 1, uses_anonymous_args = 0
 144 0000 80B5     		push	{r7, lr}
 145              		.cfi_def_cfa_offset 8
 146              		.cfi_offset 7, -8
 147              		.cfi_offset 14, -4
 148 0002 8EB0     		sub	sp, sp, #56
 149              		.cfi_def_cfa_offset 64
 150 0004 00AF     		add	r7, sp, #0
 151              		.cfi_def_cfa_register 7
 170:.\Generated_Source\PSoC5/isr.c ****     /*  Place your Interrupt code here. */
 171:.\Generated_Source\PSoC5/isr.c ****     /* `#START isr_Interrupt` */
 172:.\Generated_Source\PSoC5/isr.c ****     
 173:.\Generated_Source\PSoC5/isr.c ****     #define NUM_TONES (1)                 // number of tones to be generated
 174:.\Generated_Source\PSoC5/isr.c ****                            // Discrete time index
 175:.\Generated_Source\PSoC5/isr.c ****     static int wave_idx=0;
 176:.\Generated_Source\PSoC5/isr.c **** //    int freqs[] = { 256 };                // Array of tone frequencies, in Hz
 177:.\Generated_Source\PSoC5/isr.c **** //    int ampls[] = { 16000 };              // Array of tone amplitudes, C1.0.15, roughly 0.5 for n
 178:.\Generated_Source\PSoC5/isr.c **** //    int T       = (1<<20)/20000;          // Samping period, in 1/2^20) seconds //16*1024 (would 
 179:.\Generated_Source\PSoC5/isr.c **** //    int k;
 180:.\Generated_Source\PSoC5/isr.c **** //    int value;
 181:.\Generated_Source\PSoC5/isr.c ****     int x=0;
 152              		.loc 1 181 0
 153 0006 0023     		movs	r3, #0
 154 0008 3B63     		str	r3, [r7, #48]
 182:.\Generated_Source\PSoC5/isr.c ****     int e_;
 183:.\Generated_Source\PSoC5/isr.c ****     int i;
 184:.\Generated_Source\PSoC5/isr.c ****    
 185:.\Generated_Source\PSoC5/isr.c ****  
 186:.\Generated_Source\PSoC5/isr.c **** //  for (k = 0 ; k<NUM_TONES ; ++k)
 187:.\Generated_Source\PSoC5/isr.c **** //  {
 188:.\Generated_Source\PSoC5/isr.c **** //      value = n*T*freqs[k]/(1<<5);
ARM GAS  C:\Users\shubhamt\AppData\Local\Temp\ccrM77Qe.s 			page 7


 189:.\Generated_Source\PSoC5/isr.c **** //      value=value&0x7fff;
 190:.\Generated_Source\PSoC5/isr.c **** //      value=(value*ampls[k])>>15;
 191:.\Generated_Source\PSoC5/isr.c **** //      x+=value;                         //15 bit unsigned number
 192:.\Generated_Source\PSoC5/isr.c **** //  }
 193:.\Generated_Source\PSoC5/isr.c **** //            
 194:.\Generated_Source\PSoC5/isr.c **** //              
 195:.\Generated_Source\PSoC5/isr.c **** //    x = (x>>4);                           //now a 8bit 2's comp value
 196:.\Generated_Source\PSoC5/isr.c **** //    x+=128;                               //Offset binary. VDAC wants this
 197:.\Generated_Source\PSoC5/isr.c ****      
 198:.\Generated_Source\PSoC5/isr.c ****     x = wave_table[wave_idx];
 155              		.loc 1 198 0
 156 000a 394B     		ldr	r3, .L14
 157 000c 1A68     		ldr	r2, [r3]
 158 000e 394B     		ldr	r3, .L14+4
 159 0010 53F82230 		ldr	r3, [r3, r2, lsl #2]
 160 0014 3B63     		str	r3, [r7, #48]
 199:.\Generated_Source\PSoC5/isr.c ****     x=(x)>>5;                             // rounds to an 8 bit number
 161              		.loc 1 199 0
 162 0016 3B6B     		ldr	r3, [r7, #48]
 163 0018 5B11     		asrs	r3, r3, #5
 164 001a 3B63     		str	r3, [r7, #48]
 200:.\Generated_Source\PSoC5/isr.c ****     x=x+128;                              // converts from 2's comp to offset binary
 165              		.loc 1 200 0
 166 001c 3B6B     		ldr	r3, [r7, #48]
 167 001e 8033     		adds	r3, r3, #128
 168 0020 3B63     		str	r3, [r7, #48]
 201:.\Generated_Source\PSoC5/isr.c **** //      
 202:.\Generated_Source\PSoC5/isr.c **** //    x = rand();   
 203:.\Generated_Source\PSoC5/isr.c ****     //fixed point -1 to 1                   double(x)/2^31(2 billion)
 204:.\Generated_Source\PSoC5/isr.c ****     VDAC8_2_ls_SetValue(x);
 169              		.loc 1 204 0
 170 0022 3B6B     		ldr	r3, [r7, #48]
 171 0024 DBB2     		uxtb	r3, r3
 172 0026 1846     		mov	r0, r3
 173 0028 FFF7FEFF 		bl	VDAC8_2_ls_SetValue
 205:.\Generated_Source\PSoC5/isr.c ****     
 206:.\Generated_Source\PSoC5/isr.c ****     e_ =  ADC_SAR_GetResult16();          //Set's value to the ADC output (16bit 2's comp value)
 174              		.loc 1 206 0
 175 002c FFF7FEFF 		bl	ADC_SAR_GetResult16
 176 0030 0346     		mov	r3, r0
 177 0032 FB62     		str	r3, [r7, #44]
 207:.\Generated_Source\PSoC5/isr.c ****         
 208:.\Generated_Source\PSoC5/isr.c ****        
 209:.\Generated_Source\PSoC5/isr.c ****     //canceller code goes here
 210:.\Generated_Source\PSoC5/isr.c ****     canceller_new_sample (x);
 178              		.loc 1 210 0
 179 0034 386B     		ldr	r0, [r7, #48]
 180 0036 FFF7FEFF 		bl	canceller_new_sample
 211:.\Generated_Source\PSoC5/isr.c ****     canceller_coeff_update (e_);
 181              		.loc 1 211 0
 182 003a F86A     		ldr	r0, [r7, #44]
 183 003c FFF7FEFF 		bl	canceller_coeff_update
 212:.\Generated_Source\PSoC5/isr.c ****     //end canceller code  
 213:.\Generated_Source\PSoC5/isr.c ****         
 214:.\Generated_Source\PSoC5/isr.c ****     VDAC8_1_hs_SetValue(x);              
 184              		.loc 1 214 0
 185 0040 3B6B     		ldr	r3, [r7, #48]
ARM GAS  C:\Users\shubhamt\AppData\Local\Temp\ccrM77Qe.s 			page 8


 186 0042 DBB2     		uxtb	r3, r3
 187 0044 1846     		mov	r0, r3
 188 0046 FFF7FEFF 		bl	VDAC8_1_hs_SetValue
 215:.\Generated_Source\PSoC5/isr.c ****        
 216:.\Generated_Source\PSoC5/isr.c ****     ++wave_idx;
 189              		.loc 1 216 0
 190 004a 294B     		ldr	r3, .L14
 191 004c 1B68     		ldr	r3, [r3]
 192 004e 5A1C     		adds	r2, r3, #1
 193 0050 274B     		ldr	r3, .L14
 194 0052 1A60     		str	r2, [r3]
 217:.\Generated_Source\PSoC5/isr.c ****         
 218:.\Generated_Source\PSoC5/isr.c ****     if (wave_idx == WAVESIZE)
 195              		.loc 1 218 0
 196 0054 264B     		ldr	r3, .L14
 197 0056 1B68     		ldr	r3, [r3]
 198 0058 142B     		cmp	r3, #20
 199 005a 02D1     		bne	.L9
 219:.\Generated_Source\PSoC5/isr.c ****     {
 220:.\Generated_Source\PSoC5/isr.c ****         wave_idx=0;
 200              		.loc 1 220 0
 201 005c 244B     		ldr	r3, .L14
 202 005e 0022     		movs	r2, #0
 203 0060 1A60     		str	r2, [r3]
 204              	.L9:
 221:.\Generated_Source\PSoC5/isr.c ****     }
 222:.\Generated_Source\PSoC5/isr.c ****         
 223:.\Generated_Source\PSoC5/isr.c ****     if (n < NUM_SAMPS_TO_CAPTURE)
 205              		.loc 1 223 0
 206 0062 254B     		ldr	r3, .L14+8
 207 0064 1A68     		ldr	r2, [r3]
 208 0066 47F22F53 		movw	r3, #29999
 209 006a 9A42     		cmp	r2, r3
 210 006c 0CDC     		bgt	.L10
 224:.\Generated_Source\PSoC5/isr.c ****     {
 225:.\Generated_Source\PSoC5/isr.c ****         cap_array[n] = e_>>4;
 211              		.loc 1 225 0
 212 006e 224B     		ldr	r3, .L14+8
 213 0070 1B68     		ldr	r3, [r3]
 214 0072 FA6A     		ldr	r2, [r7, #44]
 215 0074 1211     		asrs	r2, r2, #4
 216 0076 D1B2     		uxtb	r1, r2
 217 0078 204A     		ldr	r2, .L14+12
 218 007a D154     		strb	r1, [r2, r3]
 226:.\Generated_Source\PSoC5/isr.c ****         ++n;
 219              		.loc 1 226 0
 220 007c 1E4B     		ldr	r3, .L14+8
 221 007e 1B68     		ldr	r3, [r3]
 222 0080 5A1C     		adds	r2, r3, #1
 223 0082 1D4B     		ldr	r3, .L14+8
 224 0084 1A60     		str	r2, [r3]
 225 0086 2FE0     		b	.L8
 226              	.L10:
 227:.\Generated_Source\PSoC5/isr.c ****     }
 228:.\Generated_Source\PSoC5/isr.c ****     else if (n == NUM_SAMPS_TO_CAPTURE)
 227              		.loc 1 228 0
 228 0088 1B4B     		ldr	r3, .L14+8
ARM GAS  C:\Users\shubhamt\AppData\Local\Temp\ccrM77Qe.s 			page 9


 229 008a 1A68     		ldr	r2, [r3]
 230 008c 47F23053 		movw	r3, #30000
 231 0090 9A42     		cmp	r2, r3
 232 0092 29D1     		bne	.L8
 233              	.LBB2:
 229:.\Generated_Source\PSoC5/isr.c ****     {
 230:.\Generated_Source\PSoC5/isr.c ****         int the_val;
 231:.\Generated_Source\PSoC5/isr.c ****         char my_string[32];
 232:.\Generated_Source\PSoC5/isr.c ****         int length;
 233:.\Generated_Source\PSoC5/isr.c ****         
 234:.\Generated_Source\PSoC5/isr.c ****         for(i=0;i<NUM_SAMPS_TO_CAPTURE;++i)
 234              		.loc 1 234 0
 235 0094 0023     		movs	r3, #0
 236 0096 7B63     		str	r3, [r7, #52]
 237 0098 1CE0     		b	.L12
 238              	.L13:
 235:.\Generated_Source\PSoC5/isr.c ****             {
 236:.\Generated_Source\PSoC5/isr.c ****                 the_val = cap_array[i];
 239              		.loc 1 236 0 discriminator 2
 240 009a 184A     		ldr	r2, .L14+12
 241 009c 7B6B     		ldr	r3, [r7, #52]
 242 009e 1344     		add	r3, r3, r2
 243 00a0 1B78     		ldrb	r3, [r3]	@ zero_extendqisi2
 244 00a2 BB62     		str	r3, [r7, #40]
 237:.\Generated_Source\PSoC5/isr.c ****                 sprintf(my_string ,"%d\n", the_val & 0xFFFF);
 245              		.loc 1 237 0 discriminator 2
 246 00a4 BB6A     		ldr	r3, [r7, #40]
 247 00a6 9BB2     		uxth	r3, r3
 248 00a8 3A1D     		adds	r2, r7, #4
 249 00aa 1046     		mov	r0, r2
 250 00ac 1449     		ldr	r1, .L14+16
 251 00ae 1A46     		mov	r2, r3
 252 00b0 FFF7FEFF 		bl	sprintf
 238:.\Generated_Source\PSoC5/isr.c ****                 length = strlen(my_string);
 253              		.loc 1 238 0 discriminator 2
 254 00b4 3B1D     		adds	r3, r7, #4
 255 00b6 1846     		mov	r0, r3
 256 00b8 FFF7FEFF 		bl	strlen
 257 00bc 0346     		mov	r3, r0
 258 00be 7B62     		str	r3, [r7, #36]
 239:.\Generated_Source\PSoC5/isr.c ****                 UART_1_PutArray( (uint8 *) my_string, length); 
 259              		.loc 1 239 0 discriminator 2
 260 00c0 7B6A     		ldr	r3, [r7, #36]
 261 00c2 DBB2     		uxtb	r3, r3
 262 00c4 3A1D     		adds	r2, r7, #4
 263 00c6 1046     		mov	r0, r2
 264 00c8 1946     		mov	r1, r3
 265 00ca FFF7FEFF 		bl	UART_1_PutArray
 234:.\Generated_Source\PSoC5/isr.c ****         for(i=0;i<NUM_SAMPS_TO_CAPTURE;++i)
 266              		.loc 1 234 0 discriminator 2
 267 00ce 7B6B     		ldr	r3, [r7, #52]
 268 00d0 0133     		adds	r3, r3, #1
 269 00d2 7B63     		str	r3, [r7, #52]
 270              	.L12:
 234:.\Generated_Source\PSoC5/isr.c ****         for(i=0;i<NUM_SAMPS_TO_CAPTURE;++i)
 271              		.loc 1 234 0 is_stmt 0 discriminator 1
 272 00d4 7A6B     		ldr	r2, [r7, #52]
ARM GAS  C:\Users\shubhamt\AppData\Local\Temp\ccrM77Qe.s 			page 10


 273 00d6 47F22F53 		movw	r3, #29999
 274 00da 9A42     		cmp	r2, r3
 275 00dc DDDD     		ble	.L13
 240:.\Generated_Source\PSoC5/isr.c ****             }
 241:.\Generated_Source\PSoC5/isr.c ****         
 242:.\Generated_Source\PSoC5/isr.c ****         ++n;
 276              		.loc 1 242 0 is_stmt 1
 277 00de 064B     		ldr	r3, .L14+8
 278 00e0 1B68     		ldr	r3, [r3]
 279 00e2 5A1C     		adds	r2, r3, #1
 280 00e4 044B     		ldr	r3, .L14+8
 281 00e6 1A60     		str	r2, [r3]
 282              	.L8:
 283              	.LBE2:
 243:.\Generated_Source\PSoC5/isr.c ****     }
 244:.\Generated_Source\PSoC5/isr.c **** }        
 284              		.loc 1 244 0
 285 00e8 3837     		adds	r7, r7, #56
 286 00ea BD46     		mov	sp, r7
 287              		@ sp needed
 288 00ec 80BD     		pop	{r7, pc}
 289              	.L15:
 290 00ee 00BF     		.align	2
 291              	.L14:
 292 00f0 00000000 		.word	wave_idx.6713
 293 00f4 00000000 		.word	wave_table
 294 00f8 00000000 		.word	n
 295 00fc 00000000 		.word	cap_array
 296 0100 00000000 		.word	.LC0
 297              		.cfi_endproc
 298              	.LFE59:
 299              		.size	isr_Interrupt, .-isr_Interrupt
 300              		.section	.text.isr_SetVector,"ax",%progbits
 301              		.align	2
 302              		.global	isr_SetVector
 303              		.thumb
 304              		.thumb_func
 305              		.type	isr_SetVector, %function
 306              	isr_SetVector:
 307              	.LFB60:
 245:.\Generated_Source\PSoC5/isr.c **** 
 246:.\Generated_Source\PSoC5/isr.c ****     /* `#END` */
 247:.\Generated_Source\PSoC5/isr.c **** 
 248:.\Generated_Source\PSoC5/isr.c **** 
 249:.\Generated_Source\PSoC5/isr.c **** 
 250:.\Generated_Source\PSoC5/isr.c **** /*******************************************************************************
 251:.\Generated_Source\PSoC5/isr.c **** * Function Name: isr_SetVector
 252:.\Generated_Source\PSoC5/isr.c **** ********************************************************************************
 253:.\Generated_Source\PSoC5/isr.c **** *
 254:.\Generated_Source\PSoC5/isr.c **** * Summary:
 255:.\Generated_Source\PSoC5/isr.c **** *   Change the ISR vector for the Interrupt. Note calling isr_Start
 256:.\Generated_Source\PSoC5/isr.c **** *   will override any effect this method would have had. To set the vector 
 257:.\Generated_Source\PSoC5/isr.c **** *   before the component has been started use isr_StartEx instead.
 258:.\Generated_Source\PSoC5/isr.c **** * 
 259:.\Generated_Source\PSoC5/isr.c **** *   When defining ISR functions, the CY_ISR and CY_ISR_PROTO macros should be 
 260:.\Generated_Source\PSoC5/isr.c **** *   used to provide consistent definition across compilers:
 261:.\Generated_Source\PSoC5/isr.c **** *
ARM GAS  C:\Users\shubhamt\AppData\Local\Temp\ccrM77Qe.s 			page 11


 262:.\Generated_Source\PSoC5/isr.c **** *   Function definition example:
 263:.\Generated_Source\PSoC5/isr.c **** *   CY_ISR(MyISR)
 264:.\Generated_Source\PSoC5/isr.c **** *   {
 265:.\Generated_Source\PSoC5/isr.c **** *   }
 266:.\Generated_Source\PSoC5/isr.c **** *
 267:.\Generated_Source\PSoC5/isr.c **** *   Function prototype example:
 268:.\Generated_Source\PSoC5/isr.c **** *     CY_ISR_PROTO(MyISR);
 269:.\Generated_Source\PSoC5/isr.c **** *
 270:.\Generated_Source\PSoC5/isr.c **** * Parameters:
 271:.\Generated_Source\PSoC5/isr.c **** *   address: Address of the ISR to set in the interrupt vector table.
 272:.\Generated_Source\PSoC5/isr.c **** *
 273:.\Generated_Source\PSoC5/isr.c **** * Return:
 274:.\Generated_Source\PSoC5/isr.c **** *   None
 275:.\Generated_Source\PSoC5/isr.c **** *
 276:.\Generated_Source\PSoC5/isr.c **** *******************************************************************************/
 277:.\Generated_Source\PSoC5/isr.c **** void isr_SetVector(cyisraddress address)
 278:.\Generated_Source\PSoC5/isr.c **** {
 308              		.loc 1 278 0
 309              		.cfi_startproc
 310              		@ args = 0, pretend = 0, frame = 16
 311              		@ frame_needed = 1, uses_anonymous_args = 0
 312              		@ link register save eliminated.
 313 0000 80B4     		push	{r7}
 314              		.cfi_def_cfa_offset 4
 315              		.cfi_offset 7, -4
 316 0002 85B0     		sub	sp, sp, #20
 317              		.cfi_def_cfa_offset 24
 318 0004 00AF     		add	r7, sp, #0
 319              		.cfi_def_cfa_register 7
 320 0006 7860     		str	r0, [r7, #4]
 279:.\Generated_Source\PSoC5/isr.c ****     cyisraddress * ramVectorTable;
 280:.\Generated_Source\PSoC5/isr.c **** 
 281:.\Generated_Source\PSoC5/isr.c ****     ramVectorTable = (cyisraddress *) *CYINT_VECT_TABLE;
 321              		.loc 1 281 0
 322 0008 054B     		ldr	r3, .L17
 323 000a 1B68     		ldr	r3, [r3]
 324 000c FB60     		str	r3, [r7, #12]
 282:.\Generated_Source\PSoC5/isr.c **** 
 283:.\Generated_Source\PSoC5/isr.c ****     ramVectorTable[CYINT_IRQ_BASE + (uint32)isr__INTC_NUMBER] = address;
 325              		.loc 1 283 0
 326 000e FB68     		ldr	r3, [r7, #12]
 327 0010 4433     		adds	r3, r3, #68
 328 0012 7A68     		ldr	r2, [r7, #4]
 329 0014 1A60     		str	r2, [r3]
 284:.\Generated_Source\PSoC5/isr.c **** }
 330              		.loc 1 284 0
 331 0016 1437     		adds	r7, r7, #20
 332 0018 BD46     		mov	sp, r7
 333              		@ sp needed
 334 001a 5DF8047B 		ldr	r7, [sp], #4
 335 001e 7047     		bx	lr
 336              	.L18:
 337              		.align	2
 338              	.L17:
 339 0020 08ED00E0 		.word	-536810232
 340              		.cfi_endproc
 341              	.LFE60:
ARM GAS  C:\Users\shubhamt\AppData\Local\Temp\ccrM77Qe.s 			page 12


 342              		.size	isr_SetVector, .-isr_SetVector
 343              		.section	.text.isr_GetVector,"ax",%progbits
 344              		.align	2
 345              		.global	isr_GetVector
 346              		.thumb
 347              		.thumb_func
 348              		.type	isr_GetVector, %function
 349              	isr_GetVector:
 350              	.LFB61:
 285:.\Generated_Source\PSoC5/isr.c **** 
 286:.\Generated_Source\PSoC5/isr.c **** 
 287:.\Generated_Source\PSoC5/isr.c **** /*******************************************************************************
 288:.\Generated_Source\PSoC5/isr.c **** * Function Name: isr_GetVector
 289:.\Generated_Source\PSoC5/isr.c **** ********************************************************************************
 290:.\Generated_Source\PSoC5/isr.c **** *
 291:.\Generated_Source\PSoC5/isr.c **** * Summary:
 292:.\Generated_Source\PSoC5/isr.c **** *   Gets the "address" of the current ISR vector for the Interrupt.
 293:.\Generated_Source\PSoC5/isr.c **** *
 294:.\Generated_Source\PSoC5/isr.c **** * Parameters:
 295:.\Generated_Source\PSoC5/isr.c **** *   None
 296:.\Generated_Source\PSoC5/isr.c **** *
 297:.\Generated_Source\PSoC5/isr.c **** * Return:
 298:.\Generated_Source\PSoC5/isr.c **** *   Address of the ISR in the interrupt vector table.
 299:.\Generated_Source\PSoC5/isr.c **** *
 300:.\Generated_Source\PSoC5/isr.c **** *******************************************************************************/
 301:.\Generated_Source\PSoC5/isr.c **** cyisraddress isr_GetVector(void)
 302:.\Generated_Source\PSoC5/isr.c **** {
 351              		.loc 1 302 0
 352              		.cfi_startproc
 353              		@ args = 0, pretend = 0, frame = 8
 354              		@ frame_needed = 1, uses_anonymous_args = 0
 355              		@ link register save eliminated.
 356 0000 80B4     		push	{r7}
 357              		.cfi_def_cfa_offset 4
 358              		.cfi_offset 7, -4
 359 0002 83B0     		sub	sp, sp, #12
 360              		.cfi_def_cfa_offset 16
 361 0004 00AF     		add	r7, sp, #0
 362              		.cfi_def_cfa_register 7
 303:.\Generated_Source\PSoC5/isr.c ****     cyisraddress * ramVectorTable;
 304:.\Generated_Source\PSoC5/isr.c **** 
 305:.\Generated_Source\PSoC5/isr.c ****     ramVectorTable = (cyisraddress *) *CYINT_VECT_TABLE;
 363              		.loc 1 305 0
 364 0006 054B     		ldr	r3, .L21
 365 0008 1B68     		ldr	r3, [r3]
 366 000a 7B60     		str	r3, [r7, #4]
 306:.\Generated_Source\PSoC5/isr.c **** 
 307:.\Generated_Source\PSoC5/isr.c ****     return ramVectorTable[CYINT_IRQ_BASE + (uint32)isr__INTC_NUMBER];
 367              		.loc 1 307 0
 368 000c 7B68     		ldr	r3, [r7, #4]
 369 000e 5B6C     		ldr	r3, [r3, #68]
 308:.\Generated_Source\PSoC5/isr.c **** }
 370              		.loc 1 308 0
 371 0010 1846     		mov	r0, r3
 372 0012 0C37     		adds	r7, r7, #12
 373 0014 BD46     		mov	sp, r7
 374              		@ sp needed
ARM GAS  C:\Users\shubhamt\AppData\Local\Temp\ccrM77Qe.s 			page 13


 375 0016 5DF8047B 		ldr	r7, [sp], #4
 376 001a 7047     		bx	lr
 377              	.L22:
 378              		.align	2
 379              	.L21:
 380 001c 08ED00E0 		.word	-536810232
 381              		.cfi_endproc
 382              	.LFE61:
 383              		.size	isr_GetVector, .-isr_GetVector
 384              		.section	.text.isr_SetPriority,"ax",%progbits
 385              		.align	2
 386              		.global	isr_SetPriority
 387              		.thumb
 388              		.thumb_func
 389              		.type	isr_SetPriority, %function
 390              	isr_SetPriority:
 391              	.LFB62:
 309:.\Generated_Source\PSoC5/isr.c **** 
 310:.\Generated_Source\PSoC5/isr.c **** 
 311:.\Generated_Source\PSoC5/isr.c **** /*******************************************************************************
 312:.\Generated_Source\PSoC5/isr.c **** * Function Name: isr_SetPriority
 313:.\Generated_Source\PSoC5/isr.c **** ********************************************************************************
 314:.\Generated_Source\PSoC5/isr.c **** *
 315:.\Generated_Source\PSoC5/isr.c **** * Summary:
 316:.\Generated_Source\PSoC5/isr.c **** *   Sets the Priority of the Interrupt. 
 317:.\Generated_Source\PSoC5/isr.c **** *
 318:.\Generated_Source\PSoC5/isr.c **** *   Note calling isr_Start or isr_StartEx will 
 319:.\Generated_Source\PSoC5/isr.c **** *   override any effect this API would have had. This API should only be called
 320:.\Generated_Source\PSoC5/isr.c **** *   after isr_Start or isr_StartEx has been called. 
 321:.\Generated_Source\PSoC5/isr.c **** *   To set the initial priority for the component, use the Design-Wide Resources
 322:.\Generated_Source\PSoC5/isr.c **** *   Interrupt Editor.
 323:.\Generated_Source\PSoC5/isr.c **** *
 324:.\Generated_Source\PSoC5/isr.c **** *   Note This API has no effect on Non-maskable interrupt NMI).
 325:.\Generated_Source\PSoC5/isr.c **** *
 326:.\Generated_Source\PSoC5/isr.c **** * Parameters:
 327:.\Generated_Source\PSoC5/isr.c **** *   priority: Priority of the interrupt, 0 being the highest priority
 328:.\Generated_Source\PSoC5/isr.c **** *             PSoC 3 and PSoC 5LP: Priority is from 0 to 7.
 329:.\Generated_Source\PSoC5/isr.c **** *             PSoC 4: Priority is from 0 to 3.
 330:.\Generated_Source\PSoC5/isr.c **** *
 331:.\Generated_Source\PSoC5/isr.c **** * Return:
 332:.\Generated_Source\PSoC5/isr.c **** *   None
 333:.\Generated_Source\PSoC5/isr.c **** *
 334:.\Generated_Source\PSoC5/isr.c **** *******************************************************************************/
 335:.\Generated_Source\PSoC5/isr.c **** void isr_SetPriority(uint8 priority)
 336:.\Generated_Source\PSoC5/isr.c **** {
 392              		.loc 1 336 0
 393              		.cfi_startproc
 394              		@ args = 0, pretend = 0, frame = 8
 395              		@ frame_needed = 1, uses_anonymous_args = 0
 396              		@ link register save eliminated.
 397 0000 80B4     		push	{r7}
 398              		.cfi_def_cfa_offset 4
 399              		.cfi_offset 7, -4
 400 0002 83B0     		sub	sp, sp, #12
 401              		.cfi_def_cfa_offset 16
 402 0004 00AF     		add	r7, sp, #0
 403              		.cfi_def_cfa_register 7
ARM GAS  C:\Users\shubhamt\AppData\Local\Temp\ccrM77Qe.s 			page 14


 404 0006 0346     		mov	r3, r0
 405 0008 FB71     		strb	r3, [r7, #7]
 337:.\Generated_Source\PSoC5/isr.c ****     *isr_INTC_PRIOR = priority << 5;
 406              		.loc 1 337 0
 407 000a 054B     		ldr	r3, .L24
 408 000c FA79     		ldrb	r2, [r7, #7]
 409 000e 5201     		lsls	r2, r2, #5
 410 0010 D2B2     		uxtb	r2, r2
 411 0012 1A70     		strb	r2, [r3]
 338:.\Generated_Source\PSoC5/isr.c **** }
 412              		.loc 1 338 0
 413 0014 0C37     		adds	r7, r7, #12
 414 0016 BD46     		mov	sp, r7
 415              		@ sp needed
 416 0018 5DF8047B 		ldr	r7, [sp], #4
 417 001c 7047     		bx	lr
 418              	.L25:
 419 001e 00BF     		.align	2
 420              	.L24:
 421 0020 01E400E0 		.word	-536812543
 422              		.cfi_endproc
 423              	.LFE62:
 424              		.size	isr_SetPriority, .-isr_SetPriority
 425              		.section	.text.isr_GetPriority,"ax",%progbits
 426              		.align	2
 427              		.global	isr_GetPriority
 428              		.thumb
 429              		.thumb_func
 430              		.type	isr_GetPriority, %function
 431              	isr_GetPriority:
 432              	.LFB63:
 339:.\Generated_Source\PSoC5/isr.c **** 
 340:.\Generated_Source\PSoC5/isr.c **** 
 341:.\Generated_Source\PSoC5/isr.c **** /*******************************************************************************
 342:.\Generated_Source\PSoC5/isr.c **** * Function Name: isr_GetPriority
 343:.\Generated_Source\PSoC5/isr.c **** ********************************************************************************
 344:.\Generated_Source\PSoC5/isr.c **** *
 345:.\Generated_Source\PSoC5/isr.c **** * Summary:
 346:.\Generated_Source\PSoC5/isr.c **** *   Gets the Priority of the Interrupt.
 347:.\Generated_Source\PSoC5/isr.c **** *
 348:.\Generated_Source\PSoC5/isr.c **** * Parameters:
 349:.\Generated_Source\PSoC5/isr.c **** *   None
 350:.\Generated_Source\PSoC5/isr.c **** *
 351:.\Generated_Source\PSoC5/isr.c **** * Return:
 352:.\Generated_Source\PSoC5/isr.c **** *   Priority of the interrupt, 0 being the highest priority
 353:.\Generated_Source\PSoC5/isr.c **** *    PSoC 3 and PSoC 5LP: Priority is from 0 to 7.
 354:.\Generated_Source\PSoC5/isr.c **** *    PSoC 4: Priority is from 0 to 3.
 355:.\Generated_Source\PSoC5/isr.c **** *
 356:.\Generated_Source\PSoC5/isr.c **** *******************************************************************************/
 357:.\Generated_Source\PSoC5/isr.c **** uint8 isr_GetPriority(void)
 358:.\Generated_Source\PSoC5/isr.c **** {
 433              		.loc 1 358 0
 434              		.cfi_startproc
 435              		@ args = 0, pretend = 0, frame = 8
 436              		@ frame_needed = 1, uses_anonymous_args = 0
 437              		@ link register save eliminated.
 438 0000 80B4     		push	{r7}
ARM GAS  C:\Users\shubhamt\AppData\Local\Temp\ccrM77Qe.s 			page 15


 439              		.cfi_def_cfa_offset 4
 440              		.cfi_offset 7, -4
 441 0002 83B0     		sub	sp, sp, #12
 442              		.cfi_def_cfa_offset 16
 443 0004 00AF     		add	r7, sp, #0
 444              		.cfi_def_cfa_register 7
 359:.\Generated_Source\PSoC5/isr.c ****     uint8 priority;
 360:.\Generated_Source\PSoC5/isr.c **** 
 361:.\Generated_Source\PSoC5/isr.c **** 
 362:.\Generated_Source\PSoC5/isr.c ****     priority = *isr_INTC_PRIOR >> 5;
 445              		.loc 1 362 0
 446 0006 064B     		ldr	r3, .L28
 447 0008 1B78     		ldrb	r3, [r3]
 448 000a DBB2     		uxtb	r3, r3
 449 000c 5B09     		lsrs	r3, r3, #5
 450 000e FB71     		strb	r3, [r7, #7]
 363:.\Generated_Source\PSoC5/isr.c **** 
 364:.\Generated_Source\PSoC5/isr.c ****     return priority;
 451              		.loc 1 364 0
 452 0010 FB79     		ldrb	r3, [r7, #7]	@ zero_extendqisi2
 365:.\Generated_Source\PSoC5/isr.c **** }
 453              		.loc 1 365 0
 454 0012 1846     		mov	r0, r3
 455 0014 0C37     		adds	r7, r7, #12
 456 0016 BD46     		mov	sp, r7
 457              		@ sp needed
 458 0018 5DF8047B 		ldr	r7, [sp], #4
 459 001c 7047     		bx	lr
 460              	.L29:
 461 001e 00BF     		.align	2
 462              	.L28:
 463 0020 01E400E0 		.word	-536812543
 464              		.cfi_endproc
 465              	.LFE63:
 466              		.size	isr_GetPriority, .-isr_GetPriority
 467              		.section	.text.isr_Enable,"ax",%progbits
 468              		.align	2
 469              		.global	isr_Enable
 470              		.thumb
 471              		.thumb_func
 472              		.type	isr_Enable, %function
 473              	isr_Enable:
 474              	.LFB64:
 366:.\Generated_Source\PSoC5/isr.c **** 
 367:.\Generated_Source\PSoC5/isr.c **** 
 368:.\Generated_Source\PSoC5/isr.c **** /*******************************************************************************
 369:.\Generated_Source\PSoC5/isr.c **** * Function Name: isr_Enable
 370:.\Generated_Source\PSoC5/isr.c **** ********************************************************************************
 371:.\Generated_Source\PSoC5/isr.c **** *
 372:.\Generated_Source\PSoC5/isr.c **** * Summary:
 373:.\Generated_Source\PSoC5/isr.c **** *   Enables the interrupt to the interrupt controller. Do not call this function
 374:.\Generated_Source\PSoC5/isr.c **** *   unless ISR_Start() has been called or the functionality of the ISR_Start() 
 375:.\Generated_Source\PSoC5/isr.c **** *   function, which sets the vector and the priority, has been called.
 376:.\Generated_Source\PSoC5/isr.c **** *
 377:.\Generated_Source\PSoC5/isr.c **** * Parameters:
 378:.\Generated_Source\PSoC5/isr.c **** *   None
 379:.\Generated_Source\PSoC5/isr.c **** *
ARM GAS  C:\Users\shubhamt\AppData\Local\Temp\ccrM77Qe.s 			page 16


 380:.\Generated_Source\PSoC5/isr.c **** * Return:
 381:.\Generated_Source\PSoC5/isr.c **** *   None
 382:.\Generated_Source\PSoC5/isr.c **** *
 383:.\Generated_Source\PSoC5/isr.c **** *******************************************************************************/
 384:.\Generated_Source\PSoC5/isr.c **** void isr_Enable(void)
 385:.\Generated_Source\PSoC5/isr.c **** {
 475              		.loc 1 385 0
 476              		.cfi_startproc
 477              		@ args = 0, pretend = 0, frame = 0
 478              		@ frame_needed = 1, uses_anonymous_args = 0
 479              		@ link register save eliminated.
 480 0000 80B4     		push	{r7}
 481              		.cfi_def_cfa_offset 4
 482              		.cfi_offset 7, -4
 483 0002 00AF     		add	r7, sp, #0
 484              		.cfi_def_cfa_register 7
 386:.\Generated_Source\PSoC5/isr.c ****     /* Enable the general interrupt. */
 387:.\Generated_Source\PSoC5/isr.c ****     *isr_INTC_SET_EN = isr__INTC_MASK;
 485              		.loc 1 387 0
 486 0004 034B     		ldr	r3, .L31
 487 0006 0222     		movs	r2, #2
 488 0008 1A60     		str	r2, [r3]
 388:.\Generated_Source\PSoC5/isr.c **** }
 489              		.loc 1 388 0
 490 000a BD46     		mov	sp, r7
 491              		@ sp needed
 492 000c 5DF8047B 		ldr	r7, [sp], #4
 493 0010 7047     		bx	lr
 494              	.L32:
 495 0012 00BF     		.align	2
 496              	.L31:
 497 0014 00E100E0 		.word	-536813312
 498              		.cfi_endproc
 499              	.LFE64:
 500              		.size	isr_Enable, .-isr_Enable
 501              		.section	.text.isr_GetState,"ax",%progbits
 502              		.align	2
 503              		.global	isr_GetState
 504              		.thumb
 505              		.thumb_func
 506              		.type	isr_GetState, %function
 507              	isr_GetState:
 508              	.LFB65:
 389:.\Generated_Source\PSoC5/isr.c **** 
 390:.\Generated_Source\PSoC5/isr.c **** 
 391:.\Generated_Source\PSoC5/isr.c **** /*******************************************************************************
 392:.\Generated_Source\PSoC5/isr.c **** * Function Name: isr_GetState
 393:.\Generated_Source\PSoC5/isr.c **** ********************************************************************************
 394:.\Generated_Source\PSoC5/isr.c **** *
 395:.\Generated_Source\PSoC5/isr.c **** * Summary:
 396:.\Generated_Source\PSoC5/isr.c **** *   Gets the state (enabled, disabled) of the Interrupt.
 397:.\Generated_Source\PSoC5/isr.c **** *
 398:.\Generated_Source\PSoC5/isr.c **** * Parameters:
 399:.\Generated_Source\PSoC5/isr.c **** *   None
 400:.\Generated_Source\PSoC5/isr.c **** *
 401:.\Generated_Source\PSoC5/isr.c **** * Return:
 402:.\Generated_Source\PSoC5/isr.c **** *   1 if enabled, 0 if disabled.
ARM GAS  C:\Users\shubhamt\AppData\Local\Temp\ccrM77Qe.s 			page 17


 403:.\Generated_Source\PSoC5/isr.c **** *
 404:.\Generated_Source\PSoC5/isr.c **** *******************************************************************************/
 405:.\Generated_Source\PSoC5/isr.c **** uint8 isr_GetState(void)
 406:.\Generated_Source\PSoC5/isr.c **** {
 509              		.loc 1 406 0
 510              		.cfi_startproc
 511              		@ args = 0, pretend = 0, frame = 0
 512              		@ frame_needed = 1, uses_anonymous_args = 0
 513              		@ link register save eliminated.
 514 0000 80B4     		push	{r7}
 515              		.cfi_def_cfa_offset 4
 516              		.cfi_offset 7, -4
 517 0002 00AF     		add	r7, sp, #0
 518              		.cfi_def_cfa_register 7
 407:.\Generated_Source\PSoC5/isr.c ****     /* Get the state of the general interrupt. */
 408:.\Generated_Source\PSoC5/isr.c ****     return ((*isr_INTC_SET_EN & (uint32)isr__INTC_MASK) != 0u) ? 1u:0u;
 519              		.loc 1 408 0
 520 0004 064B     		ldr	r3, .L37
 521 0006 1B68     		ldr	r3, [r3]
 522 0008 03F00203 		and	r3, r3, #2
 523 000c 002B     		cmp	r3, #0
 524 000e 01D0     		beq	.L34
 525              		.loc 1 408 0 is_stmt 0 discriminator 1
 526 0010 0123     		movs	r3, #1
 527 0012 00E0     		b	.L35
 528              	.L34:
 529              		.loc 1 408 0 discriminator 2
 530 0014 0023     		movs	r3, #0
 531              	.L35:
 409:.\Generated_Source\PSoC5/isr.c **** }
 532              		.loc 1 409 0 is_stmt 1 discriminator 3
 533 0016 1846     		mov	r0, r3
 534 0018 BD46     		mov	sp, r7
 535              		@ sp needed
 536 001a 5DF8047B 		ldr	r7, [sp], #4
 537 001e 7047     		bx	lr
 538              	.L38:
 539              		.align	2
 540              	.L37:
 541 0020 00E100E0 		.word	-536813312
 542              		.cfi_endproc
 543              	.LFE65:
 544              		.size	isr_GetState, .-isr_GetState
 545              		.section	.text.isr_Disable,"ax",%progbits
 546              		.align	2
 547              		.global	isr_Disable
 548              		.thumb
 549              		.thumb_func
 550              		.type	isr_Disable, %function
 551              	isr_Disable:
 552              	.LFB66:
 410:.\Generated_Source\PSoC5/isr.c **** 
 411:.\Generated_Source\PSoC5/isr.c **** 
 412:.\Generated_Source\PSoC5/isr.c **** /*******************************************************************************
 413:.\Generated_Source\PSoC5/isr.c **** * Function Name: isr_Disable
 414:.\Generated_Source\PSoC5/isr.c **** ********************************************************************************
 415:.\Generated_Source\PSoC5/isr.c **** *
ARM GAS  C:\Users\shubhamt\AppData\Local\Temp\ccrM77Qe.s 			page 18


 416:.\Generated_Source\PSoC5/isr.c **** * Summary:
 417:.\Generated_Source\PSoC5/isr.c **** *   Disables the Interrupt in the interrupt controller.
 418:.\Generated_Source\PSoC5/isr.c **** *
 419:.\Generated_Source\PSoC5/isr.c **** * Parameters:
 420:.\Generated_Source\PSoC5/isr.c **** *   None
 421:.\Generated_Source\PSoC5/isr.c **** *
 422:.\Generated_Source\PSoC5/isr.c **** * Return:
 423:.\Generated_Source\PSoC5/isr.c **** *   None
 424:.\Generated_Source\PSoC5/isr.c **** *
 425:.\Generated_Source\PSoC5/isr.c **** *******************************************************************************/
 426:.\Generated_Source\PSoC5/isr.c **** void isr_Disable(void)
 427:.\Generated_Source\PSoC5/isr.c **** {
 553              		.loc 1 427 0
 554              		.cfi_startproc
 555              		@ args = 0, pretend = 0, frame = 0
 556              		@ frame_needed = 1, uses_anonymous_args = 0
 557              		@ link register save eliminated.
 558 0000 80B4     		push	{r7}
 559              		.cfi_def_cfa_offset 4
 560              		.cfi_offset 7, -4
 561 0002 00AF     		add	r7, sp, #0
 562              		.cfi_def_cfa_register 7
 428:.\Generated_Source\PSoC5/isr.c ****     /* Disable the general interrupt. */
 429:.\Generated_Source\PSoC5/isr.c ****     *isr_INTC_CLR_EN = isr__INTC_MASK;
 563              		.loc 1 429 0
 564 0004 034B     		ldr	r3, .L40
 565 0006 0222     		movs	r2, #2
 566 0008 1A60     		str	r2, [r3]
 430:.\Generated_Source\PSoC5/isr.c **** }
 567              		.loc 1 430 0
 568 000a BD46     		mov	sp, r7
 569              		@ sp needed
 570 000c 5DF8047B 		ldr	r7, [sp], #4
 571 0010 7047     		bx	lr
 572              	.L41:
 573 0012 00BF     		.align	2
 574              	.L40:
 575 0014 80E100E0 		.word	-536813184
 576              		.cfi_endproc
 577              	.LFE66:
 578              		.size	isr_Disable, .-isr_Disable
 579              		.section	.text.isr_SetPending,"ax",%progbits
 580              		.align	2
 581              		.global	isr_SetPending
 582              		.thumb
 583              		.thumb_func
 584              		.type	isr_SetPending, %function
 585              	isr_SetPending:
 586              	.LFB67:
 431:.\Generated_Source\PSoC5/isr.c **** 
 432:.\Generated_Source\PSoC5/isr.c **** 
 433:.\Generated_Source\PSoC5/isr.c **** /*******************************************************************************
 434:.\Generated_Source\PSoC5/isr.c **** * Function Name: isr_SetPending
 435:.\Generated_Source\PSoC5/isr.c **** ********************************************************************************
 436:.\Generated_Source\PSoC5/isr.c **** *
 437:.\Generated_Source\PSoC5/isr.c **** * Summary:
 438:.\Generated_Source\PSoC5/isr.c **** *   Causes the Interrupt to enter the pending state, a software method of
ARM GAS  C:\Users\shubhamt\AppData\Local\Temp\ccrM77Qe.s 			page 19


 439:.\Generated_Source\PSoC5/isr.c **** *   generating the interrupt.
 440:.\Generated_Source\PSoC5/isr.c **** *
 441:.\Generated_Source\PSoC5/isr.c **** * Parameters:
 442:.\Generated_Source\PSoC5/isr.c **** *   None
 443:.\Generated_Source\PSoC5/isr.c **** *
 444:.\Generated_Source\PSoC5/isr.c **** * Return:
 445:.\Generated_Source\PSoC5/isr.c **** *   None
 446:.\Generated_Source\PSoC5/isr.c **** *
 447:.\Generated_Source\PSoC5/isr.c **** * Side Effects:
 448:.\Generated_Source\PSoC5/isr.c **** *   If interrupts are enabled and the interrupt is set up properly, the ISR is
 449:.\Generated_Source\PSoC5/isr.c **** *   entered (depending on the priority of this interrupt and other pending 
 450:.\Generated_Source\PSoC5/isr.c **** *   interrupts).
 451:.\Generated_Source\PSoC5/isr.c **** *
 452:.\Generated_Source\PSoC5/isr.c **** *******************************************************************************/
 453:.\Generated_Source\PSoC5/isr.c **** void isr_SetPending(void)
 454:.\Generated_Source\PSoC5/isr.c **** {
 587              		.loc 1 454 0
 588              		.cfi_startproc
 589              		@ args = 0, pretend = 0, frame = 0
 590              		@ frame_needed = 1, uses_anonymous_args = 0
 591              		@ link register save eliminated.
 592 0000 80B4     		push	{r7}
 593              		.cfi_def_cfa_offset 4
 594              		.cfi_offset 7, -4
 595 0002 00AF     		add	r7, sp, #0
 596              		.cfi_def_cfa_register 7
 455:.\Generated_Source\PSoC5/isr.c ****     *isr_INTC_SET_PD = isr__INTC_MASK;
 597              		.loc 1 455 0
 598 0004 034B     		ldr	r3, .L43
 599 0006 0222     		movs	r2, #2
 600 0008 1A60     		str	r2, [r3]
 456:.\Generated_Source\PSoC5/isr.c **** }
 601              		.loc 1 456 0
 602 000a BD46     		mov	sp, r7
 603              		@ sp needed
 604 000c 5DF8047B 		ldr	r7, [sp], #4
 605 0010 7047     		bx	lr
 606              	.L44:
 607 0012 00BF     		.align	2
 608              	.L43:
 609 0014 00E200E0 		.word	-536813056
 610              		.cfi_endproc
 611              	.LFE67:
 612              		.size	isr_SetPending, .-isr_SetPending
 613              		.section	.text.isr_ClearPending,"ax",%progbits
 614              		.align	2
 615              		.global	isr_ClearPending
 616              		.thumb
 617              		.thumb_func
 618              		.type	isr_ClearPending, %function
 619              	isr_ClearPending:
 620              	.LFB68:
 457:.\Generated_Source\PSoC5/isr.c **** 
 458:.\Generated_Source\PSoC5/isr.c **** 
 459:.\Generated_Source\PSoC5/isr.c **** /*******************************************************************************
 460:.\Generated_Source\PSoC5/isr.c **** * Function Name: isr_ClearPending
 461:.\Generated_Source\PSoC5/isr.c **** ********************************************************************************
ARM GAS  C:\Users\shubhamt\AppData\Local\Temp\ccrM77Qe.s 			page 20


 462:.\Generated_Source\PSoC5/isr.c **** *
 463:.\Generated_Source\PSoC5/isr.c **** * Summary:
 464:.\Generated_Source\PSoC5/isr.c **** *   Clears a pending interrupt in the interrupt controller.
 465:.\Generated_Source\PSoC5/isr.c **** *
 466:.\Generated_Source\PSoC5/isr.c **** *   Note Some interrupt sources are clear-on-read and require the block 
 467:.\Generated_Source\PSoC5/isr.c **** *   interrupt/status register to be read/cleared with the appropriate block API 
 468:.\Generated_Source\PSoC5/isr.c **** *   (GPIO, UART, and so on). Otherwise the ISR will continue to remain in 
 469:.\Generated_Source\PSoC5/isr.c **** *   pending state even though the interrupt itself is cleared using this API.
 470:.\Generated_Source\PSoC5/isr.c **** *
 471:.\Generated_Source\PSoC5/isr.c **** * Parameters:
 472:.\Generated_Source\PSoC5/isr.c **** *   None
 473:.\Generated_Source\PSoC5/isr.c **** *
 474:.\Generated_Source\PSoC5/isr.c **** * Return:
 475:.\Generated_Source\PSoC5/isr.c **** *   None
 476:.\Generated_Source\PSoC5/isr.c **** *
 477:.\Generated_Source\PSoC5/isr.c **** *******************************************************************************/
 478:.\Generated_Source\PSoC5/isr.c **** void isr_ClearPending(void)
 479:.\Generated_Source\PSoC5/isr.c **** {
 621              		.loc 1 479 0
 622              		.cfi_startproc
 623              		@ args = 0, pretend = 0, frame = 0
 624              		@ frame_needed = 1, uses_anonymous_args = 0
 625              		@ link register save eliminated.
 626 0000 80B4     		push	{r7}
 627              		.cfi_def_cfa_offset 4
 628              		.cfi_offset 7, -4
 629 0002 00AF     		add	r7, sp, #0
 630              		.cfi_def_cfa_register 7
 480:.\Generated_Source\PSoC5/isr.c ****     *isr_INTC_CLR_PD = isr__INTC_MASK;
 631              		.loc 1 480 0
 632 0004 034B     		ldr	r3, .L46
 633 0006 0222     		movs	r2, #2
 634 0008 1A60     		str	r2, [r3]
 481:.\Generated_Source\PSoC5/isr.c **** }
 635              		.loc 1 481 0
 636 000a BD46     		mov	sp, r7
 637              		@ sp needed
 638 000c 5DF8047B 		ldr	r7, [sp], #4
 639 0010 7047     		bx	lr
 640              	.L47:
 641 0012 00BF     		.align	2
 642              	.L46:
 643 0014 80E200E0 		.word	-536812928
 644              		.cfi_endproc
 645              	.LFE68:
 646              		.size	isr_ClearPending, .-isr_ClearPending
 647              		.bss
 648              		.align	2
 649              	wave_idx.6713:
 650 0000 00000000 		.space	4
 651              		.text
 652              	.Letext0:
 653              		.file 2 "c:\\program files (x86)\\cypress\\psoc creator\\3.2\\psoc creator\\import\\gnu\\arm\\4.8.
 654              		.file 3 "c:\\program files (x86)\\cypress\\psoc creator\\3.2\\psoc creator\\import\\gnu\\arm\\4.8.
 655              		.file 4 "Generated_Source\\PSoC5/cytypes.h"
 656              		.file 5 "Generated_Source\\PSoC5/core_cm3.h"