ARM GAS  C:\Users\shubhamt\AppData\Local\Temp\ccOZ33yO.s 			page 1


   1              		.syntax unified
   2              		.cpu cortex-m3
   3              		.fpu softvfp
   4              		.eabi_attribute 20, 1
   5              		.eabi_attribute 21, 1
   6              		.eabi_attribute 23, 3
   7              		.eabi_attribute 24, 1
   8              		.eabi_attribute 25, 1
   9              		.eabi_attribute 26, 1
  10              		.eabi_attribute 30, 6
  11              		.eabi_attribute 34, 1
  12              		.eabi_attribute 18, 4
  13              		.thumb
  14              		.file	"main.c"
  15              		.text
  16              	.Ltext0:
  17              		.cfi_sections	.debug_frame
  18              		.comm	wave_table,80,4
  19              		.global	__aeabi_i2d
  20              		.global	__aeabi_dmul
  21              		.global	__aeabi_ddiv
  22              		.global	__aeabi_d2iz
  23              		.section	.text.main,"ax",%progbits
  24              		.align	2
  25              		.global	main
  26              		.thumb
  27              		.thumb_func
  28              		.type	main, %function
  29              	main:
  30              	.LFB56:
  31              		.file 1 ".\\main.c"
   1:.\main.c      **** /* ========================================
   2:.\main.c      ****  *
   3:.\main.c      ****  * Copyright YOUR COMPANY, THE YEAR
   4:.\main.c      ****  * All Rights Reserved
   5:.\main.c      ****  * UNPUBLISHED, LICENSED SOFTWARE.
   6:.\main.c      ****  *
   7:.\main.c      ****  * CONFIDENTIAL AND PROPRIETARY INFORMATION
   8:.\main.c      ****  * WHICH IS THE PROPERTY OF your company.
   9:.\main.c      ****  *
  10:.\main.c      ****  * ========================================
  11:.\main.c      **** */
  12:.\main.c      **** #include <math.h>
  13:.\main.c      **** #include <project.h>
  14:.\main.c      **** #include "ANC.h"
  15:.\main.c      **** int wave_table[WAVESIZE]; 
  16:.\main.c      **** //int16_t cap_array[NUM_SAMPS_TO_CAPTURE];
  17:.\main.c      **** 
  18:.\main.c      **** int main()
  19:.\main.c      **** {
  32              		.loc 1 19 0
  33              		.cfi_startproc
  34              		@ args = 0, pretend = 0, frame = 8
  35              		@ frame_needed = 1, uses_anonymous_args = 0
  36 0000 80B5     		push	{r7, lr}
  37              		.cfi_def_cfa_offset 8
  38              		.cfi_offset 7, -8
ARM GAS  C:\Users\shubhamt\AppData\Local\Temp\ccOZ33yO.s 			page 2


  39              		.cfi_offset 14, -4
  40 0002 82B0     		sub	sp, sp, #8
  41              		.cfi_def_cfa_offset 16
  42 0004 00AF     		add	r7, sp, #0
  43              		.cfi_def_cfa_register 7
  20:.\main.c      ****     
  21:.\main.c      ****     /* Place your initialization/startup code here (e.g. MyInst_Start()) */
  22:.\main.c      ****     int i;  
  23:.\main.c      ****     for(i=0;i<WAVESIZE;++i)
  44              		.loc 1 23 0
  45 0006 0023     		movs	r3, #0
  46 0008 7B60     		str	r3, [r7, #4]
  47 000a 31E0     		b	.L2
  48              	.L3:
  24:.\main.c      ****     {
  25:.\main.c      ****         wave_table[i]=(int)(sin(2.0*3.1416*i/WAVESIZE)*4095); 
  49              		.loc 1 25 0 discriminator 2
  50 000c 7868     		ldr	r0, [r7, #4]
  51 000e FFF7FEFF 		bl	__aeabi_i2d
  52 0012 0246     		mov	r2, r0
  53 0014 0B46     		mov	r3, r1
  54 0016 1046     		mov	r0, r2
  55 0018 1946     		mov	r1, r3
  56 001a 1DA3     		adr	r3, .L4
  57 001c D3E90023 		ldrd	r2, [r3]
  58 0020 FFF7FEFF 		bl	__aeabi_dmul
  59 0024 0246     		mov	r2, r0
  60 0026 0B46     		mov	r3, r1
  61 0028 1046     		mov	r0, r2
  62 002a 1946     		mov	r1, r3
  63 002c 4FF00002 		mov	r2, #0
  64 0030 1B4B     		ldr	r3, .L4+16
  65 0032 FFF7FEFF 		bl	__aeabi_ddiv
  66 0036 0246     		mov	r2, r0
  67 0038 0B46     		mov	r3, r1
  68 003a 1046     		mov	r0, r2
  69 003c 1946     		mov	r1, r3
  70 003e FFF7FEFF 		bl	sin
  71 0042 0246     		mov	r2, r0
  72 0044 0B46     		mov	r3, r1
  73 0046 1046     		mov	r0, r2
  74 0048 1946     		mov	r1, r3
  75 004a 13A3     		adr	r3, .L4+8
  76 004c D3E90023 		ldrd	r2, [r3]
  77 0050 FFF7FEFF 		bl	__aeabi_dmul
  78 0054 0246     		mov	r2, r0
  79 0056 0B46     		mov	r3, r1
  80 0058 1046     		mov	r0, r2
  81 005a 1946     		mov	r1, r3
  82 005c FFF7FEFF 		bl	__aeabi_d2iz
  83 0060 0146     		mov	r1, r0
  84 0062 104B     		ldr	r3, .L4+20
  85 0064 7A68     		ldr	r2, [r7, #4]
  86 0066 43F82210 		str	r1, [r3, r2, lsl #2]
  23:.\main.c      ****     for(i=0;i<WAVESIZE;++i)
  87              		.loc 1 23 0 discriminator 2
  88 006a 7B68     		ldr	r3, [r7, #4]
ARM GAS  C:\Users\shubhamt\AppData\Local\Temp\ccOZ33yO.s 			page 3


  89 006c 0133     		adds	r3, r3, #1
  90 006e 7B60     		str	r3, [r7, #4]
  91              	.L2:
  23:.\main.c      ****     for(i=0;i<WAVESIZE;++i)
  92              		.loc 1 23 0 is_stmt 0 discriminator 1
  93 0070 7B68     		ldr	r3, [r7, #4]
  94 0072 132B     		cmp	r3, #19
  95 0074 CADD     		ble	.L3
  26:.\main.c      ****     }
  27:.\main.c      ****     isr_Start();
  96              		.loc 1 27 0 is_stmt 1
  97 0076 FFF7FEFF 		bl	isr_Start
  28:.\main.c      ****     VDAC8_1_hs_Start();
  98              		.loc 1 28 0
  99 007a FFF7FEFF 		bl	VDAC8_1_hs_Start
  29:.\main.c      ****     ADC_SAR_Start();
 100              		.loc 1 29 0
 101 007e FFF7FEFF 		bl	ADC_SAR_Start
  30:.\main.c      ****     VDAC8_2_ls_Start();
 102              		.loc 1 30 0
 103 0082 FFF7FEFF 		bl	VDAC8_2_ls_Start
  31:.\main.c      ****     
  32:.\main.c      ****     CyGlobalIntEnable; /* Uncomment this line to enable global interrupts. */
 104              		.loc 1 32 0
 105              	@ 32 ".\main.c" 1
 106 0086 62B6     		CPSIE   i
 107              	@ 0 "" 2
  33:.\main.c      **** 
  34:.\main.c      ****     
  35:.\main.c      **** }
 108              		.loc 1 35 0
 109              		.thumb
 110 0088 1846     		mov	r0, r3
 111 008a 0837     		adds	r7, r7, #8
 112 008c BD46     		mov	sp, r7
 113              		@ sp needed
 114 008e 80BD     		pop	{r7, pc}
 115              	.L5:
 116              		.align	3
 117              	.L4:
 118 0090 A7E8482E 		.word	776530087
 119 0094 FF211940 		.word	1075388927
 120 0098 00000000 		.word	0
 121 009c 00FEAF40 		.word	1085275648
 122 00a0 00003440 		.word	1077149696
 123 00a4 00000000 		.word	wave_table
 124              		.cfi_endproc
 125              	.LFE56:
 126              		.size	main, .-main
 127              		.text
 128              	.Letext0:
 129              		.file 2 "c:\\program files (x86)\\cypress\\psoc creator\\3.2\\psoc creator\\import\\gnu\\arm\\4.8.
 130              		.file 3 "c:\\program files (x86)\\cypress\\psoc creator\\3.2\\psoc creator\\import\\gnu\\arm\\4.8.
 131              		.file 4 "Generated_Source\\PSoC5/core_cm3.h"