ARM GAS  C:\Users\shbh\AppData\Local\Temp\ccbH9h45.s 			page 1


   1              		.syntax unified
   2              		.cpu cortex-m3
   3              		.fpu softvfp
   4              		.eabi_attribute 20, 1
   5              		.eabi_attribute 21, 1
   6              		.eabi_attribute 23, 3
   7              		.eabi_attribute 24, 1
   8              		.eabi_attribute 25, 1
   9              		.eabi_attribute 26, 1
  10              		.eabi_attribute 30, 6
  11              		.eabi_attribute 34, 1
  12              		.eabi_attribute 18, 4
  13              		.thumb
  14              		.file	"main.c"
  15              		.text
  16              	.Ltext0:
  17              		.cfi_sections	.debug_frame
  18              		.section	.text.main,"ax",%progbits
  19              		.align	2
  20              		.global	main
  21              		.thumb
  22              		.thumb_func
  23              		.type	main, %function
  24              	main:
  25              	.LFB56:
  26              		.file 1 ".\\main.c"
   1:.\main.c      **** /* ========================================
   2:.\main.c      ****  *
   3:.\main.c      ****  * Copyright YOUR COMPANY, THE YEAR
   4:.\main.c      ****  * All Rights Reserved
   5:.\main.c      ****  * UNPUBLISHED, LICENSED SOFTWARE.
   6:.\main.c      ****  *
   7:.\main.c      ****  * CONFIDENTIAL AND PROPRIETARY INFORMATION
   8:.\main.c      ****  * WHICH IS THE PROPERTY OF your company.
   9:.\main.c      ****  *
  10:.\main.c      ****  * ========================================
  11:.\main.c      **** */
  12:.\main.c      **** #include <project.h>
  13:.\main.c      **** 
  14:.\main.c      **** int main()
  15:.\main.c      **** {
  27              		.loc 1 15 0
  28              		.cfi_startproc
  29              		@ args = 0, pretend = 0, frame = 32
  30              		@ frame_needed = 1, uses_anonymous_args = 0
  31 0000 80B5     		push	{r7, lr}
  32              	.LCFI0:
  33              		.cfi_def_cfa_offset 8
  34              		.cfi_offset 7, -8
  35              		.cfi_offset 14, -4
  36 0002 88B0     		sub	sp, sp, #32
  37              	.LCFI1:
  38              		.cfi_def_cfa_offset 40
  39 0004 00AF     		add	r7, sp, #0
  40              	.LCFI2:
  41              		.cfi_def_cfa_register 7
  16:.\main.c      **** #define NUM_TONES (1)           //number of tones to be generated
ARM GAS  C:\Users\shbh\AppData\Local\Temp\ccbH9h45.s 			page 2


  17:.\main.c      ****     int n;      // Discrete time index
  18:.\main.c      ****     int freqs[] = { 200 };      // Array of tone frequencies, in Hz
  42              		.loc 1 18 0
  43 0006 4FF0C803 		mov	r3, #200
  44 000a BB60     		str	r3, [r7, #8]
  19:.\main.c      ****     int ampls[] = { 16000 };    // Array of tone amplitudes, C1.0.15, roughly 0.5 for now
  45              		.loc 1 19 0
  46 000c 4FF47A53 		mov	r3, #16000
  47 0010 7B60     		str	r3, [r7, #4]
  20:.\main.c      ****     int T       = 1000;          // Samping period, in microseconds
  48              		.loc 1 20 0
  49 0012 4FF47A73 		mov	r3, #1000
  50 0016 3B61     		str	r3, [r7, #16]
  21:.\main.c      ****     int k;
  22:.\main.c      ****     
  23:.\main.c      ****     /* Place your initialization/startup code here (e.g. MyInst_Start()) */
  24:.\main.c      ****     VDAC8_Start();
  51              		.loc 1 24 0
  52 0018 FFF7FEFF 		bl	VDAC8_Start
  25:.\main.c      ****     /* CyGlobalIntEnable; */ /* Uncomment this line to enable global interrupts. */
  26:.\main.c      ****     for(n=0;;++n)
  53              		.loc 1 26 0
  54 001c 4FF00003 		mov	r3, #0
  55 0020 FB61     		str	r3, [r7, #28]
  56              	.L4:
  57              	.LBB2:
  27:.\main.c      ****     {
  28:.\main.c      ****         int value;
  29:.\main.c      ****         int tones_sum=0;
  58              		.loc 1 29 0
  59 0022 4FF00003 		mov	r3, #0
  60 0026 7B61     		str	r3, [r7, #20]
  30:.\main.c      ****         for (k = 0 ; k<NUM_TONES ; ++k)
  61              		.loc 1 30 0
  62 0028 4FF00003 		mov	r3, #0
  63 002c BB61     		str	r3, [r7, #24]
  64 002e 36E0     		b	.L2
  65              	.L3:
  31:.\main.c      ****         {
  32:.\main.c      ****             
  33:.\main.c      ****             value = n*T*freqs[k]/(1000000/(1<<15));
  66              		.loc 1 33 0 discriminator 2
  67 0030 FB69     		ldr	r3, [r7, #28]
  68 0032 3A69     		ldr	r2, [r7, #16]
  69 0034 02FB03F2 		mul	r2, r2, r3
  70 0038 BB69     		ldr	r3, [r7, #24]
  71 003a 4FEA8303 		lsl	r3, r3, #2
  72 003e 07F12001 		add	r1, r7, #32
  73 0042 CB18     		adds	r3, r1, r3
  74 0044 53F8183C 		ldr	r3, [r3, #-24]
  75 0048 03FB02F3 		mul	r3, r3, r2
  76 004c 48F68902 		movw	r2, #34953
  77 0050 C8F68802 		movt	r2, 34952
  78 0054 82FB0312 		smull	r1, r2, r2, r3
  79 0058 D218     		adds	r2, r2, r3
  80 005a 4FEA2212 		asr	r2, r2, #4
  81 005e 4FEAE373 		asr	r3, r3, #31
ARM GAS  C:\Users\shbh\AppData\Local\Temp\ccbH9h45.s 			page 3


  82 0062 D31A     		subs	r3, r2, r3
  83 0064 FB60     		str	r3, [r7, #12]
  34:.\main.c      ****             value=value&0x7fff;
  84              		.loc 1 34 0 discriminator 2
  85 0066 FB68     		ldr	r3, [r7, #12]
  86 0068 4FEA4343 		lsl	r3, r3, #17
  87 006c 4FEA5343 		lsr	r3, r3, #17
  88 0070 FB60     		str	r3, [r7, #12]
  35:.\main.c      ****             value=(value*ampls[k])>>15;
  89              		.loc 1 35 0 discriminator 2
  90 0072 BB69     		ldr	r3, [r7, #24]
  91 0074 4FEA8303 		lsl	r3, r3, #2
  92 0078 07F12002 		add	r2, r7, #32
  93 007c D318     		adds	r3, r2, r3
  94 007e 53F81C3C 		ldr	r3, [r3, #-28]
  95 0082 FA68     		ldr	r2, [r7, #12]
  96 0084 02FB03F3 		mul	r3, r2, r3
  97 0088 4FEAE333 		asr	r3, r3, #15
  98 008c FB60     		str	r3, [r7, #12]
  36:.\main.c      ****             tones_sum+=value;                   //15 bit unsigned number
  99              		.loc 1 36 0 discriminator 2
 100 008e 7A69     		ldr	r2, [r7, #20]
 101 0090 FB68     		ldr	r3, [r7, #12]
 102 0092 D318     		adds	r3, r2, r3
 103 0094 7B61     		str	r3, [r7, #20]
  30:.\main.c      ****         for (k = 0 ; k<NUM_TONES ; ++k)
 104              		.loc 1 30 0 discriminator 2
 105 0096 BB69     		ldr	r3, [r7, #24]
 106 0098 03F10103 		add	r3, r3, #1
 107 009c BB61     		str	r3, [r7, #24]
 108              	.L2:
  30:.\main.c      ****         for (k = 0 ; k<NUM_TONES ; ++k)
 109              		.loc 1 30 0 is_stmt 0 discriminator 1
 110 009e BB69     		ldr	r3, [r7, #24]
 111 00a0 002B     		cmp	r3, #0
 112 00a2 C5DD     		ble	.L3
  37:.\main.c      ****         }
  38:.\main.c      ****         
  39:.\main.c      ****         VDAC8_SetValue(tones_sum>>7);           //for it to fit into a 8bit range
 113              		.loc 1 39 0 is_stmt 1
 114 00a4 7B69     		ldr	r3, [r7, #20]
 115 00a6 4FEAE313 		asr	r3, r3, #7
 116 00aa DBB2     		uxtb	r3, r3
 117 00ac 1846     		mov	r0, r3
 118 00ae FFF7FEFF 		bl	VDAC8_SetValue
  40:.\main.c      ****         
  41:.\main.c      ****         CyDelay(T/1000);
 119              		.loc 1 41 0
 120 00b2 3A69     		ldr	r2, [r7, #16]
 121 00b4 44F6D353 		movw	r3, #19923
 122 00b8 C1F26203 		movt	r3, 4194
 123 00bc 83FB0213 		smull	r1, r3, r3, r2
 124 00c0 4FEAA311 		asr	r1, r3, #6
 125 00c4 4FEAE273 		asr	r3, r2, #31
 126 00c8 CB1A     		subs	r3, r1, r3
 127 00ca 1846     		mov	r0, r3
 128 00cc FFF7FEFF 		bl	CyDelay
ARM GAS  C:\Users\shbh\AppData\Local\Temp\ccbH9h45.s 			page 4


 129              	.LBE2:
  26:.\main.c      ****     for(n=0;;++n)
 130              		.loc 1 26 0
 131 00d0 FB69     		ldr	r3, [r7, #28]
 132 00d2 03F10103 		add	r3, r3, #1
 133 00d6 FB61     		str	r3, [r7, #28]
  42:.\main.c      ****     }
 134              		.loc 1 42 0
 135 00d8 A3E7     		b	.L4
 136              		.cfi_endproc
 137              	.LFE56:
 138              		.size	main, .-main
 139 00da 00BF     		.text
 140              	.Letext0:
 141              		.file 2 "c:\\program files (x86)\\cypress\\psoc creator\\3.0\\psoc creator\\import\\gnu_cs\\arm\\4
 142              		.file 3 "./Generated_Source/PSoC5/core_cm3.h"